
Blinky_CM4.elf:     file format elf32-littlearm

Sections:
Idx Name          Size      VMA       LMA       File off  Algn
  0 .isr_vector   00000298  08100000  08100000  00001000  2**0
                  CONTENTS, ALLOC, LOAD, READONLY, DATA
  1 .text         00000f18  08100298  08100298  00001298  2**2
                  CONTENTS, ALLOC, LOAD, READONLY, CODE
  2 .rodata       00000018  081011b0  081011b0  000021b0  2**2
                  CONTENTS, ALLOC, LOAD, READONLY, DATA
  3 .init_array   00000004  081011c8  081011c8  000021c8  2**2
                  CONTENTS, ALLOC, LOAD, READONLY, DATA
  4 .fini_array   00000004  081011cc  081011cc  000021cc  2**2
                  CONTENTS, ALLOC, LOAD, READONLY, DATA
  5 .data         0000001c  10000000  081011d0  00003000  2**2
                  CONTENTS, ALLOC, LOAD, DATA
  6 .bss          00000020  1000001c  081011ec  0000301c  2**2
                  ALLOC
  7 ._user_heap_stack 00000604  1000003c  081011ec  0000303c  2**0
                  ALLOC
  8 .ARM.attributes 00000030  00000000  00000000  0000301c  2**0
                  CONTENTS, READONLY
  9 .debug_info   0000866b  00000000  00000000  0000304c  2**0
                  CONTENTS, READONLY, DEBUGGING, OCTETS
 10 .debug_abbrev 00001705  00000000  00000000  0000b6b7  2**0
                  CONTENTS, READONLY, DEBUGGING, OCTETS
 11 .debug_aranges 000007a0  00000000  00000000  0000cdc0  2**3
                  CONTENTS, READONLY, DEBUGGING, OCTETS
 12 .debug_rnglists 00000599  00000000  00000000  0000d560  2**0
                  CONTENTS, READONLY, DEBUGGING, OCTETS
 13 .debug_macro  00038a20  00000000  00000000  0000daf9  2**0
                  CONTENTS, READONLY, DEBUGGING, OCTETS
 14 .debug_line   00009373  00000000  00000000  00046519  2**0
                  CONTENTS, READONLY, DEBUGGING, OCTETS
 15 .debug_str    001786f2  00000000  00000000  0004f88c  2**0
                  CONTENTS, READONLY, DEBUGGING, OCTETS
 16 .comment      00000043  00000000  00000000  001c7f7e  2**0
                  CONTENTS, READONLY
 17 .debug_frame  00001d20  00000000  00000000  001c7fc4  2**2
                  CONTENTS, READONLY, DEBUGGING, OCTETS
 18 .debug_line_str 000000bf  00000000  00000000  001c9ce4  2**0
                  CONTENTS, READONLY, DEBUGGING, OCTETS

Disassembly of section .text:

08100298 <__do_global_dtors_aux>:
 8100298:	b510      	push	{r4, lr}
 810029a:	4c05      	ldr	r4, [pc, #20]	@ (81002b0 <__do_global_dtors_aux+0x18>)
 810029c:	7823      	ldrb	r3, [r4, #0]
 810029e:	b933      	cbnz	r3, 81002ae <__do_global_dtors_aux+0x16>
 81002a0:	4b04      	ldr	r3, [pc, #16]	@ (81002b4 <__do_global_dtors_aux+0x1c>)
 81002a2:	b113      	cbz	r3, 81002aa <__do_global_dtors_aux+0x12>
 81002a4:	4804      	ldr	r0, [pc, #16]	@ (81002b8 <__do_global_dtors_aux+0x20>)
 81002a6:	f3af 8000 	nop.w
 81002aa:	2301      	movs	r3, #1
 81002ac:	7023      	strb	r3, [r4, #0]
 81002ae:	bd10      	pop	{r4, pc}
 81002b0:	1000001c 	.word	0x1000001c
 81002b4:	00000000 	.word	0x00000000
 81002b8:	08101198 	.word	0x08101198

081002bc <frame_dummy>:
 81002bc:	b508      	push	{r3, lr}
 81002be:	4b03      	ldr	r3, [pc, #12]	@ (81002cc <frame_dummy+0x10>)
 81002c0:	b11b      	cbz	r3, 81002ca <frame_dummy+0xe>
 81002c2:	4903      	ldr	r1, [pc, #12]	@ (81002d0 <frame_dummy+0x14>)
 81002c4:	4803      	ldr	r0, [pc, #12]	@ (81002d4 <frame_dummy+0x18>)
 81002c6:	f3af 8000 	nop.w
 81002ca:	bd08      	pop	{r3, pc}
 81002cc:	00000000 	.word	0x00000000
 81002d0:	10000020 	.word	0x10000020
 81002d4:	08101198 	.word	0x08101198

081002d8 <SystemInit>:
  *         configuration.
  * @param  None
  * @retval None
  */
void SystemInit (void)
{
 81002d8:	b480      	push	{r7}
 81002da:	af00      	add	r7, sp, #0
  /* FPU settings ------------------------------------------------------------*/
  #if (__FPU_PRESENT == 1) && (__FPU_USED == 1)
    SCB->CPACR |= ((3UL << (10*2))|(3UL << (11*2)));  /* set CP10 and CP11 Full Access */
 81002dc:	4b09      	ldr	r3, [pc, #36]	@ (8100304 <SystemInit+0x2c>)
 81002de:	f8d3 3088 	ldr.w	r3, [r3, #136]	@ 0x88
 81002e2:	4a08      	ldr	r2, [pc, #32]	@ (8100304 <SystemInit+0x2c>)
 81002e4:	f443 0370 	orr.w	r3, r3, #15728640	@ 0xf00000
 81002e8:	f8c2 3088 	str.w	r3, [r2, #136]	@ 0x88
  #endif

    /*SEVONPEND enabled so that an interrupt coming from the CPU(n) interrupt signal is
     detectable by the CPU after a WFI/WFE instruction.*/
 SCB->SCR |= SCB_SCR_SEVONPEND_Msk;
 81002ec:	4b05      	ldr	r3, [pc, #20]	@ (8100304 <SystemInit+0x2c>)
 81002ee:	691b      	ldr	r3, [r3, #16]
 81002f0:	4a04      	ldr	r2, [pc, #16]	@ (8100304 <SystemInit+0x2c>)
 81002f2:	f043 0310 	orr.w	r3, r3, #16
 81002f6:	6113      	str	r3, [r2, #16]
#endif /* USER_VECT_TAB_ADDRESS */

#else
#error Please #define CORE_CM4 or CORE_CM7
#endif /* CORE_CM4 */
}
 81002f8:	bf00      	nop
 81002fa:	46bd      	mov	sp, r7
 81002fc:	f85d 7b04 	ldr.w	r7, [sp], #4
 8100300:	4770      	bx	lr
 8100302:	bf00      	nop
 8100304:	e000ed00 	.word	0xe000ed00

08100308 <main>:
/**
  * @brief  The application entry point.
  * @retval int
  */
int main(void)
{
 8100308:	b580      	push	{r7, lr}
 810030a:	b082      	sub	sp, #8
 810030c:	af00      	add	r7, sp, #0

  /* USER CODE END 1 */

/* USER CODE BEGIN Boot_Mode_Sequence_1 */
  /*HW semaphore Clock enable*/
  __HAL_RCC_HSEM_CLK_ENABLE();
 810030e:	4b1f      	ldr	r3, [pc, #124]	@ (810038c <main+0x84>)
 8100310:	f8d3 30e0 	ldr.w	r3, [r3, #224]	@ 0xe0
 8100314:	4a1d      	ldr	r2, [pc, #116]	@ (810038c <main+0x84>)
 8100316:	f043 7300 	orr.w	r3, r3, #33554432	@ 0x2000000
 810031a:	f8c2 30e0 	str.w	r3, [r2, #224]	@ 0xe0
 810031e:	4b1b      	ldr	r3, [pc, #108]	@ (810038c <main+0x84>)
 8100320:	f8d3 30e0 	ldr.w	r3, [r3, #224]	@ 0xe0
 8100324:	f003 7300 	and.w	r3, r3, #33554432	@ 0x2000000
 8100328:	607b      	str	r3, [r7, #4]
 810032a:	687b      	ldr	r3, [r7, #4]
  /* Activate HSEM notification for Cortex-M4*/
  HAL_HSEM_ActivateNotification(__HAL_HSEM_SEMID_TO_MASK(HSEM_ID_0));
 810032c:	2001      	movs	r0, #1
 810032e:	f000 fcfb 	bl	8100d28 <HAL_HSEM_ActivateNotification>
  /*
  Domain D2 goes to STOP mode (Cortex-M4 in deep-sleep) waiting for Cortex-M7 to
  perform system initialization (system clock config, external memory configuration.. )
  */
  HAL_PWREx_ClearPendingEvent();
 8100332:	f000 fd85 	bl	8100e40 <HAL_PWREx_ClearPendingEvent>
  HAL_PWREx_EnterSTOPMode(PWR_MAINREGULATOR_ON, PWR_STOPENTRY_WFE, PWR_D2_DOMAIN);
 8100336:	2201      	movs	r2, #1
 8100338:	2102      	movs	r1, #2
 810033a:	2000      	movs	r0, #0
 810033c:	f000 fd06 	bl	8100d4c <HAL_PWREx_EnterSTOPMode>
  /* Clear HSEM flag */
  __HAL_HSEM_CLEAR_FLAG(__HAL_HSEM_SEMID_TO_MASK(HSEM_ID_0));
 8100340:	4b13      	ldr	r3, [pc, #76]	@ (8100390 <main+0x88>)
 8100342:	681b      	ldr	r3, [r3, #0]
 8100344:	091b      	lsrs	r3, r3, #4
 8100346:	f003 030f 	and.w	r3, r3, #15
 810034a:	2b07      	cmp	r3, #7
 810034c:	d108      	bne.n	8100360 <main+0x58>
 810034e:	4b11      	ldr	r3, [pc, #68]	@ (8100394 <main+0x8c>)
 8100350:	f8d3 3104 	ldr.w	r3, [r3, #260]	@ 0x104
 8100354:	4a0f      	ldr	r2, [pc, #60]	@ (8100394 <main+0x8c>)
 8100356:	f043 0301 	orr.w	r3, r3, #1
 810035a:	f8c2 3104 	str.w	r3, [r2, #260]	@ 0x104
 810035e:	e007      	b.n	8100370 <main+0x68>
 8100360:	4b0c      	ldr	r3, [pc, #48]	@ (8100394 <main+0x8c>)
 8100362:	f8d3 3114 	ldr.w	r3, [r3, #276]	@ 0x114
 8100366:	4a0b      	ldr	r2, [pc, #44]	@ (8100394 <main+0x8c>)
 8100368:	f043 0301 	orr.w	r3, r3, #1
 810036c:	f8c2 3114 	str.w	r3, [r2, #276]	@ 0x114

/* USER CODE END Boot_Mode_Sequence_1 */
  /* MCU Configuration--------------------------------------------------------*/

  /* Reset of all peripherals, Initializes the Flash interface and the Systick. */
  HAL_Init();
 8100370:	f000 f926 	bl	81005c0 <HAL_Init>

  /* USER CODE END SysInit */

  /* Initialize all configured peripherals */
  /* USER CODE BEGIN 2 */
  BSP_LED_Init(LED_RED);
 8100374:	2002      	movs	r0, #2
 8100376:	f000 f883 	bl	8100480 <BSP_LED_Init>

  /* Infinite loop */
  /* USER CODE BEGIN WHILE */
  while (1)
  {
	BSP_LED_Toggle(LED_RED);
 810037a:	2002      	movs	r0, #2
 810037c:	f000 f8f6 	bl	810056c <BSP_LED_Toggle>
	HAL_Delay(1000);
 8100380:	f44f 707a 	mov.w	r0, #1000	@ 0x3e8
 8100384:	f000 f9d0 	bl	8100728 <HAL_Delay>
	BSP_LED_Toggle(LED_RED);
 8100388:	bf00      	nop
 810038a:	e7f6      	b.n	810037a <main+0x72>
 810038c:	58024400 	.word	0x58024400
 8100390:	e000ed00 	.word	0xe000ed00
 8100394:	58026400 	.word	0x58026400

08100398 <HAL_MspInit>:
/* USER CODE END 0 */
/**
  * Initializes the Global MSP.
  */
void HAL_MspInit(void)
{
 8100398:	b480      	push	{r7}
 810039a:	b083      	sub	sp, #12
 810039c:	af00      	add	r7, sp, #0

  /* USER CODE BEGIN MspInit 0 */

  /* USER CODE END MspInit 0 */

  __HAL_RCC_SYSCFG_CLK_ENABLE();
 810039e:	4b0a      	ldr	r3, [pc, #40]	@ (81003c8 <HAL_MspInit+0x30>)
 81003a0:	f8d3 30f4 	ldr.w	r3, [r3, #244]	@ 0xf4
 81003a4:	4a08      	ldr	r2, [pc, #32]	@ (81003c8 <HAL_MspInit+0x30>)
 81003a6:	f043 0302 	orr.w	r3, r3, #2
 81003aa:	f8c2 30f4 	str.w	r3, [r2, #244]	@ 0xf4
 81003ae:	4b06      	ldr	r3, [pc, #24]	@ (81003c8 <HAL_MspInit+0x30>)
 81003b0:	f8d3 30f4 	ldr.w	r3, [r3, #244]	@ 0xf4
 81003b4:	f003 0302 	and.w	r3, r3, #2
 81003b8:	607b      	str	r3, [r7, #4]
 81003ba:	687b      	ldr	r3, [r7, #4]
  /* System interrupt init*/

  /* USER CODE BEGIN MspInit 1 */

  /* USER CODE END MspInit 1 */
}
 81003bc:	bf00      	nop
 81003be:	370c      	adds	r7, #12
 81003c0:	46bd      	mov	sp, r7
 81003c2:	f85d 7b04 	ldr.w	r7, [sp], #4
 81003c6:	4770      	bx	lr
 81003c8:	58024400 	.word	0x58024400

081003cc <NMI_Handler>:
/******************************************************************************/
/**
  * @brief This function handles Non maskable interrupt.
  */
void NMI_Handler(void)
{
 81003cc:	b480      	push	{r7}
 81003ce:	af00      	add	r7, sp, #0
  /* USER CODE BEGIN NonMaskableInt_IRQn 0 */

  /* USER CODE END NonMaskableInt_IRQn 0 */
  /* USER CODE BEGIN NonMaskableInt_IRQn 1 */
   while (1)
 81003d0:	bf00      	nop
 81003d2:	e7fd      	b.n	81003d0 <NMI_Handler+0x4>

081003d4 <HardFault_Handler>:

/**
  * @brief This function handles Hard fault interrupt.
  */
void HardFault_Handler(void)
{
 81003d4:	b480      	push	{r7}
 81003d6:	af00      	add	r7, sp, #0
  /* USER CODE BEGIN HardFault_IRQn 0 */

  /* USER CODE END HardFault_IRQn 0 */
  while (1)
 81003d8:	bf00      	nop
 81003da:	e7fd      	b.n	81003d8 <HardFault_Handler+0x4>

081003dc <MemManage_Handler>:

/**
  * @brief This function handles Memory management fault.
  */
void MemManage_Handler(void)
{
 81003dc:	b480      	push	{r7}
 81003de:	af00      	add	r7, sp, #0
  /* USER CODE BEGIN MemoryManagement_IRQn 0 */

  /* USER CODE END MemoryManagement_IRQn 0 */
  while (1)
 81003e0:	bf00      	nop
 81003e2:	e7fd      	b.n	81003e0 <MemManage_Handler+0x4>

081003e4 <BusFault_Handler>:

/**
  * @brief This function handles Pre-fetch fault, memory access fault.
  */
void BusFault_Handler(void)
{
 81003e4:	b480      	push	{r7}
 81003e6:	af00      	add	r7, sp, #0
  /* USER CODE BEGIN BusFault_IRQn 0 */

  /* USER CODE END BusFault_IRQn 0 */
  while (1)
 81003e8:	bf00      	nop
 81003ea:	e7fd      	b.n	81003e8 <BusFault_Handler+0x4>

081003ec <UsageFault_Handler>:

/**
  * @brief This function handles Undefined instruction or illegal state.
  */
void UsageFault_Handler(void)
{
 81003ec:	b480      	push	{r7}
 81003ee:	af00      	add	r7, sp, #0
  /* USER CODE BEGIN UsageFault_IRQn 0 */

  /* USER CODE END UsageFault_IRQn 0 */
  while (1)
 81003f0:	bf00      	nop
 81003f2:	e7fd      	b.n	81003f0 <UsageFault_Handler+0x4>

081003f4 <SVC_Handler>:

/**
  * @brief This function handles System service call via SWI instruction.
  */
void SVC_Handler(void)
{
 81003f4:	b480      	push	{r7}
 81003f6:	af00      	add	r7, sp, #0

  /* USER CODE END SVCall_IRQn 0 */
  /* USER CODE BEGIN SVCall_IRQn 1 */

  /* USER CODE END SVCall_IRQn 1 */
}
 81003f8:	bf00      	nop
 81003fa:	46bd      	mov	sp, r7
 81003fc:	f85d 7b04 	ldr.w	r7, [sp], #4
 8100400:	4770      	bx	lr

08100402 <DebugMon_Handler>:

/**
  * @brief This function handles Debug monitor.
  */
void DebugMon_Handler(void)
{
 8100402:	b480      	push	{r7}
 8100404:	af00      	add	r7, sp, #0

  /* USER CODE END DebugMonitor_IRQn 0 */
  /* USER CODE BEGIN DebugMonitor_IRQn 1 */

  /* USER CODE END DebugMonitor_IRQn 1 */
}
 8100406:	bf00      	nop
 8100408:	46bd      	mov	sp, r7
 810040a:	f85d 7b04 	ldr.w	r7, [sp], #4
 810040e:	4770      	bx	lr

08100410 <PendSV_Handler>:

/**
  * @brief This function handles Pendable request for system service.
  */
void PendSV_Handler(void)
{
 8100410:	b480      	push	{r7}
 8100412:	af00      	add	r7, sp, #0

  /* USER CODE END PendSV_IRQn 0 */
  /* USER CODE BEGIN PendSV_IRQn 1 */

  /* USER CODE END PendSV_IRQn 1 */
}
 8100414:	bf00      	nop
 8100416:	46bd      	mov	sp, r7
 8100418:	f85d 7b04 	ldr.w	r7, [sp], #4
 810041c:	4770      	bx	lr

0810041e <SysTick_Handler>:

/**
  * @brief This function handles System tick timer.
  */
void SysTick_Handler(void)
{
 810041e:	b580      	push	{r7, lr}
 8100420:	af00      	add	r7, sp, #0
  /* USER CODE BEGIN SysTick_IRQn 0 */

  /* USER CODE END SysTick_IRQn 0 */
  HAL_IncTick();
 8100422:	f000 f961 	bl	81006e8 <HAL_IncTick>
  /* USER CODE BEGIN SysTick_IRQn 1 */

  /* USER CODE END SysTick_IRQn 1 */
}
 8100426:	bf00      	nop
 8100428:	bd80      	pop	{r7, pc}
	...

0810042c <Reset_Handler>:

    .section  .text.Reset_Handler
  .weak  Reset_Handler
  .type  Reset_Handler, %function
Reset_Handler:
  ldr   sp, =_estack      /* set stack pointer */
 810042c:	f8df d034 	ldr.w	sp, [pc, #52]	@ 8100464 <LoopFillZerobss+0xe>

/* Call the clock system initialization function.*/
  bl  SystemInit
 8100430:	f7ff ff52 	bl	81002d8 <SystemInit>

/* Copy the data segment initializers from flash to SRAM */
  ldr r0, =_sdata
 8100434:	480c      	ldr	r0, [pc, #48]	@ (8100468 <LoopFillZerobss+0x12>)
  ldr r1, =_edata
 8100436:	490d      	ldr	r1, [pc, #52]	@ (810046c <LoopFillZerobss+0x16>)
  ldr r2, =_sidata
 8100438:	4a0d      	ldr	r2, [pc, #52]	@ (8100470 <LoopFillZerobss+0x1a>)
  movs r3, #0
 810043a:	2300      	movs	r3, #0
  b LoopCopyDataInit
 810043c:	e002      	b.n	8100444 <LoopCopyDataInit>

0810043e <CopyDataInit>:

CopyDataInit:
  ldr r4, [r2, r3]
 810043e:	58d4      	ldr	r4, [r2, r3]
  str r4, [r0, r3]
 8100440:	50c4      	str	r4, [r0, r3]
  adds r3, r3, #4
 8100442:	3304      	adds	r3, #4

08100444 <LoopCopyDataInit>:

LoopCopyDataInit:
  adds r4, r0, r3
 8100444:	18c4      	adds	r4, r0, r3
  cmp r4, r1
 8100446:	428c      	cmp	r4, r1
  bcc CopyDataInit
 8100448:	d3f9      	bcc.n	810043e <CopyDataInit>
/* Zero fill the bss segment. */
  ldr r2, =_sbss
 810044a:	4a0a      	ldr	r2, [pc, #40]	@ (8100474 <LoopFillZerobss+0x1e>)
  ldr r4, =_ebss
 810044c:	4c0a      	ldr	r4, [pc, #40]	@ (8100478 <LoopFillZerobss+0x22>)
  movs r3, #0
 810044e:	2300      	movs	r3, #0
  b LoopFillZerobss
 8100450:	e001      	b.n	8100456 <LoopFillZerobss>

08100452 <FillZerobss>:

FillZerobss:
  str  r3, [r2]
 8100452:	6013      	str	r3, [r2, #0]
  adds r2, r2, #4
 8100454:	3204      	adds	r2, #4

08100456 <LoopFillZerobss>:

LoopFillZerobss:
  cmp r2, r4
 8100456:	42a2      	cmp	r2, r4
  bcc FillZerobss
 8100458:	d3fb      	bcc.n	8100452 <FillZerobss>

/* Call static constructors */
    bl __libc_init_array
 810045a:	f000 fe79 	bl	8101150 <__libc_init_array>
/* Call the application's entry point.*/
  bl  main
 810045e:	f7ff ff53 	bl	8100308 <main>
  bx  lr
 8100462:	4770      	bx	lr
  ldr   sp, =_estack      /* set stack pointer */
 8100464:	10048000 	.word	0x10048000
  ldr r0, =_sdata
 8100468:	10000000 	.word	0x10000000
  ldr r1, =_edata
 810046c:	1000001c 	.word	0x1000001c
  ldr r2, =_sidata
 8100470:	081011d0 	.word	0x081011d0
  ldr r2, =_sbss
 8100474:	1000001c 	.word	0x1000001c
  ldr r4, =_ebss
 8100478:	1000003c 	.word	0x1000003c

0810047c <ADC3_IRQHandler>:
 * @retval None
*/
    .section  .text.Default_Handler,"ax",%progbits
Default_Handler:
Infinite_Loop:
  b  Infinite_Loop
 810047c:	e7fe      	b.n	810047c <ADC3_IRQHandler>
	...

08100480 <BSP_LED_Init>:
  *     @arg  LED2
  *     @arg  LED3
  * @retval BSP status
  */
int32_t BSP_LED_Init(Led_TypeDef Led)
{
 8100480:	b580      	push	{r7, lr}
 8100482:	b08c      	sub	sp, #48	@ 0x30
 8100484:	af00      	add	r7, sp, #0
 8100486:	4603      	mov	r3, r0
 8100488:	71fb      	strb	r3, [r7, #7]
  int32_t ret = BSP_ERROR_NONE;
 810048a:	2300      	movs	r3, #0
 810048c:	62fb      	str	r3, [r7, #44]	@ 0x2c
  GPIO_InitTypeDef  gpio_init_structure;

  if((Led != LED1) && (Led != LED2) && (Led != LED3))
 810048e:	79fb      	ldrb	r3, [r7, #7]
 8100490:	2b00      	cmp	r3, #0
 8100492:	d009      	beq.n	81004a8 <BSP_LED_Init+0x28>
 8100494:	79fb      	ldrb	r3, [r7, #7]
 8100496:	2b01      	cmp	r3, #1
 8100498:	d006      	beq.n	81004a8 <BSP_LED_Init+0x28>
 810049a:	79fb      	ldrb	r3, [r7, #7]
 810049c:	2b02      	cmp	r3, #2
 810049e:	d003      	beq.n	81004a8 <BSP_LED_Init+0x28>
  {
    ret = BSP_ERROR_WRONG_PARAM;
 81004a0:	f06f 0301 	mvn.w	r3, #1
 81004a4:	62fb      	str	r3, [r7, #44]	@ 0x2c
 81004a6:	e055      	b.n	8100554 <BSP_LED_Init+0xd4>
  }
  else
  {
    /* Enable the GPIO LED Clock */
    if(Led == LED1)
 81004a8:	79fb      	ldrb	r3, [r7, #7]
 81004aa:	2b00      	cmp	r3, #0
 81004ac:	d10f      	bne.n	81004ce <BSP_LED_Init+0x4e>
    {
      LED1_GPIO_CLK_ENABLE();
 81004ae:	4b2c      	ldr	r3, [pc, #176]	@ (8100560 <BSP_LED_Init+0xe0>)
 81004b0:	f8d3 30e0 	ldr.w	r3, [r3, #224]	@ 0xe0
 81004b4:	4a2a      	ldr	r2, [pc, #168]	@ (8100560 <BSP_LED_Init+0xe0>)
 81004b6:	f043 0302 	orr.w	r3, r3, #2
 81004ba:	f8c2 30e0 	str.w	r3, [r2, #224]	@ 0xe0
 81004be:	4b28      	ldr	r3, [pc, #160]	@ (8100560 <BSP_LED_Init+0xe0>)
 81004c0:	f8d3 30e0 	ldr.w	r3, [r3, #224]	@ 0xe0
 81004c4:	f003 0302 	and.w	r3, r3, #2
 81004c8:	617b      	str	r3, [r7, #20]
 81004ca:	697b      	ldr	r3, [r7, #20]
 81004cc:	e021      	b.n	8100512 <BSP_LED_Init+0x92>
    }
    else if(Led == LED2)
 81004ce:	79fb      	ldrb	r3, [r7, #7]
 81004d0:	2b01      	cmp	r3, #1
 81004d2:	d10f      	bne.n	81004f4 <BSP_LED_Init+0x74>
    {
      LED2_GPIO_CLK_ENABLE();
 81004d4:	4b22      	ldr	r3, [pc, #136]	@ (8100560 <BSP_LED_Init+0xe0>)
 81004d6:	f8d3 30e0 	ldr.w	r3, [r3, #224]	@ 0xe0
 81004da:	4a21      	ldr	r2, [pc, #132]	@ (8100560 <BSP_LED_Init+0xe0>)
 81004dc:	f043 0310 	orr.w	r3, r3, #16
 81004e0:	f8c2 30e0 	str.w	r3, [r2, #224]	@ 0xe0
 81004e4:	4b1e      	ldr	r3, [pc, #120]	@ (8100560 <BSP_LED_Init+0xe0>)
 81004e6:	f8d3 30e0 	ldr.w	r3, [r3, #224]	@ 0xe0
 81004ea:	f003 0310 	and.w	r3, r3, #16
 81004ee:	613b      	str	r3, [r7, #16]
 81004f0:	693b      	ldr	r3, [r7, #16]
 81004f2:	e00e      	b.n	8100512 <BSP_LED_Init+0x92>
    }
    else
    {
      LED3_GPIO_CLK_ENABLE();
 81004f4:	4b1a      	ldr	r3, [pc, #104]	@ (8100560 <BSP_LED_Init+0xe0>)
 81004f6:	f8d3 30e0 	ldr.w	r3, [r3, #224]	@ 0xe0
 81004fa:	4a19      	ldr	r2, [pc, #100]	@ (8100560 <BSP_LED_Init+0xe0>)
 81004fc:	f043 0302 	orr.w	r3, r3, #2
 8100500:	f8c2 30e0 	str.w	r3, [r2, #224]	@ 0xe0
 8100504:	4b16      	ldr	r3, [pc, #88]	@ (8100560 <BSP_LED_Init+0xe0>)
 8100506:	f8d3 30e0 	ldr.w	r3, [r3, #224]	@ 0xe0
 810050a:	f003 0302 	and.w	r3, r3, #2
 810050e:	60fb      	str	r3, [r7, #12]
 8100510:	68fb      	ldr	r3, [r7, #12]
    }
    /* Configure the GPIO_LED pin */
    gpio_init_structure.Pin   = LED_PIN[Led];
 8100512:	79fb      	ldrb	r3, [r7, #7]
 8100514:	4a13      	ldr	r2, [pc, #76]	@ (8100564 <BSP_LED_Init+0xe4>)
 8100516:	f832 3013 	ldrh.w	r3, [r2, r3, lsl #1]
 810051a:	61bb      	str	r3, [r7, #24]
    gpio_init_structure.Mode  = GPIO_MODE_OUTPUT_PP;
 810051c:	2301      	movs	r3, #1
 810051e:	61fb      	str	r3, [r7, #28]
    gpio_init_structure.Pull  = GPIO_NOPULL;
 8100520:	2300      	movs	r3, #0
 8100522:	623b      	str	r3, [r7, #32]
    gpio_init_structure.Speed = GPIO_SPEED_FREQ_VERY_HIGH;
 8100524:	2303      	movs	r3, #3
 8100526:	627b      	str	r3, [r7, #36]	@ 0x24

    HAL_GPIO_Init(LED_PORT[Led], &gpio_init_structure);
 8100528:	79fb      	ldrb	r3, [r7, #7]
 810052a:	4a0f      	ldr	r2, [pc, #60]	@ (8100568 <BSP_LED_Init+0xe8>)
 810052c:	f852 3023 	ldr.w	r3, [r2, r3, lsl #2]
 8100530:	f107 0218 	add.w	r2, r7, #24
 8100534:	4611      	mov	r1, r2
 8100536:	4618      	mov	r0, r3
 8100538:	f000 fa12 	bl	8100960 <HAL_GPIO_Init>
    HAL_GPIO_WritePin(LED_PORT[Led], LED_PIN[Led], GPIO_PIN_RESET);
 810053c:	79fb      	ldrb	r3, [r7, #7]
 810053e:	4a0a      	ldr	r2, [pc, #40]	@ (8100568 <BSP_LED_Init+0xe8>)
 8100540:	f852 0023 	ldr.w	r0, [r2, r3, lsl #2]
 8100544:	79fb      	ldrb	r3, [r7, #7]
 8100546:	4a07      	ldr	r2, [pc, #28]	@ (8100564 <BSP_LED_Init+0xe4>)
 8100548:	f832 3013 	ldrh.w	r3, [r2, r3, lsl #1]
 810054c:	2200      	movs	r2, #0
 810054e:	4619      	mov	r1, r3
 8100550:	f000 fbb6 	bl	8100cc0 <HAL_GPIO_WritePin>
  }

  return ret;
 8100554:	6afb      	ldr	r3, [r7, #44]	@ 0x2c
}
 8100556:	4618      	mov	r0, r3
 8100558:	3730      	adds	r7, #48	@ 0x30
 810055a:	46bd      	mov	sp, r7
 810055c:	bd80      	pop	{r7, pc}
 810055e:	bf00      	nop
 8100560:	58024400 	.word	0x58024400
 8100564:	081011c0 	.word	0x081011c0
 8100568:	10000008 	.word	0x10000008

0810056c <BSP_LED_Toggle>:
  *     @arg  LED2
  *     @arg  LED3
  * @retval BSP status
  */
int32_t BSP_LED_Toggle(Led_TypeDef Led)
{
 810056c:	b580      	push	{r7, lr}
 810056e:	b084      	sub	sp, #16
 8100570:	af00      	add	r7, sp, #0
 8100572:	4603      	mov	r3, r0
 8100574:	71fb      	strb	r3, [r7, #7]
  int32_t ret = BSP_ERROR_NONE;
 8100576:	2300      	movs	r3, #0
 8100578:	60fb      	str	r3, [r7, #12]

  if((Led != LED1) && (Led != LED2) && (Led != LED3))
 810057a:	79fb      	ldrb	r3, [r7, #7]
 810057c:	2b00      	cmp	r3, #0
 810057e:	d009      	beq.n	8100594 <BSP_LED_Toggle+0x28>
 8100580:	79fb      	ldrb	r3, [r7, #7]
 8100582:	2b01      	cmp	r3, #1
 8100584:	d006      	beq.n	8100594 <BSP_LED_Toggle+0x28>
 8100586:	79fb      	ldrb	r3, [r7, #7]
 8100588:	2b02      	cmp	r3, #2
 810058a:	d003      	beq.n	8100594 <BSP_LED_Toggle+0x28>
  {
    ret = BSP_ERROR_WRONG_PARAM;
 810058c:	f06f 0301 	mvn.w	r3, #1
 8100590:	60fb      	str	r3, [r7, #12]
 8100592:	e00b      	b.n	81005ac <BSP_LED_Toggle+0x40>
  }
  else
  {
    HAL_GPIO_TogglePin(LED_PORT[Led], LED_PIN[Led]);
 8100594:	79fb      	ldrb	r3, [r7, #7]
 8100596:	4a08      	ldr	r2, [pc, #32]	@ (81005b8 <BSP_LED_Toggle+0x4c>)
 8100598:	f852 2023 	ldr.w	r2, [r2, r3, lsl #2]
 810059c:	79fb      	ldrb	r3, [r7, #7]
 810059e:	4907      	ldr	r1, [pc, #28]	@ (81005bc <BSP_LED_Toggle+0x50>)
 81005a0:	f831 3013 	ldrh.w	r3, [r1, r3, lsl #1]
 81005a4:	4619      	mov	r1, r3
 81005a6:	4610      	mov	r0, r2
 81005a8:	f000 fba3 	bl	8100cf2 <HAL_GPIO_TogglePin>
  }

  return ret;
 81005ac:	68fb      	ldr	r3, [r7, #12]
}
 81005ae:	4618      	mov	r0, r3
 81005b0:	3710      	adds	r7, #16
 81005b2:	46bd      	mov	sp, r7
 81005b4:	bd80      	pop	{r7, pc}
 81005b6:	bf00      	nop
 81005b8:	10000008 	.word	0x10000008
 81005bc:	081011c0 	.word	0x081011c0

081005c0 <HAL_Init>:
  *         need to ensure that the SysTick time base is always set to 1 millisecond
  *         to have correct HAL operation.
  * @retval HAL status
  */
HAL_StatusTypeDef HAL_Init(void)
{
 81005c0:	b580      	push	{r7, lr}
 81005c2:	b082      	sub	sp, #8
 81005c4:	af00      	add	r7, sp, #0

uint32_t common_system_clock;

#if defined(DUAL_CORE) && defined(CORE_CM4)
   /* Configure Cortex-M4 Instruction cache through ART accelerator */
   __HAL_RCC_ART_CLK_ENABLE();                   /* Enable the Cortex-M4 ART Clock */
 81005c6:	4b28      	ldr	r3, [pc, #160]	@ (8100668 <HAL_Init+0xa8>)
 81005c8:	f8d3 30d8 	ldr.w	r3, [r3, #216]	@ 0xd8
 81005cc:	4a26      	ldr	r2, [pc, #152]	@ (8100668 <HAL_Init+0xa8>)
 81005ce:	f443 4380 	orr.w	r3, r3, #16384	@ 0x4000
 81005d2:	f8c2 30d8 	str.w	r3, [r2, #216]	@ 0xd8
 81005d6:	4b24      	ldr	r3, [pc, #144]	@ (8100668 <HAL_Init+0xa8>)
 81005d8:	f8d3 30d8 	ldr.w	r3, [r3, #216]	@ 0xd8
 81005dc:	f403 4380 	and.w	r3, r3, #16384	@ 0x4000
 81005e0:	603b      	str	r3, [r7, #0]
 81005e2:	683b      	ldr	r3, [r7, #0]
   __HAL_ART_CONFIG_BASE_ADDRESS(0x08100000UL);  /* Configure the Cortex-M4 ART Base address to the Flash Bank 2 : */
 81005e4:	4b21      	ldr	r3, [pc, #132]	@ (810066c <HAL_Init+0xac>)
 81005e6:	681b      	ldr	r3, [r3, #0]
 81005e8:	f423 237f 	bic.w	r3, r3, #1044480	@ 0xff000
 81005ec:	f423 6370 	bic.w	r3, r3, #3840	@ 0xf00
 81005f0:	4a1e      	ldr	r2, [pc, #120]	@ (810066c <HAL_Init+0xac>)
 81005f2:	f443 4301 	orr.w	r3, r3, #33024	@ 0x8100
 81005f6:	6013      	str	r3, [r2, #0]
   __HAL_ART_ENABLE();                           /* Enable the Cortex-M4 ART */
 81005f8:	4b1c      	ldr	r3, [pc, #112]	@ (810066c <HAL_Init+0xac>)
 81005fa:	681b      	ldr	r3, [r3, #0]
 81005fc:	4a1b      	ldr	r2, [pc, #108]	@ (810066c <HAL_Init+0xac>)
 81005fe:	f043 0301 	orr.w	r3, r3, #1
 8100602:	6013      	str	r3, [r2, #0]
#endif /* DUAL_CORE &&  CORE_CM4 */

  /* Set Interrupt Group Priority */
  HAL_NVIC_SetPriorityGrouping(NVIC_PRIORITYGROUP_4);
 8100604:	2003      	movs	r0, #3
 8100606:	f000 f965 	bl	81008d4 <HAL_NVIC_SetPriorityGrouping>

  /* Update the SystemCoreClock global variable */
#if defined(RCC_D1CFGR_D1CPRE)
  common_system_clock = HAL_RCC_GetSysClockFreq() >> ((D1CorePrescTable[(RCC->D1CFGR & RCC_D1CFGR_D1CPRE)>> RCC_D1CFGR_D1CPRE_Pos]) & 0x1FU);
 810060a:	f000 fc27 	bl	8100e5c <HAL_RCC_GetSysClockFreq>
 810060e:	4602      	mov	r2, r0
 8100610:	4b15      	ldr	r3, [pc, #84]	@ (8100668 <HAL_Init+0xa8>)
 8100612:	699b      	ldr	r3, [r3, #24]
 8100614:	0a1b      	lsrs	r3, r3, #8
 8100616:	f003 030f 	and.w	r3, r3, #15
 810061a:	4915      	ldr	r1, [pc, #84]	@ (8100670 <HAL_Init+0xb0>)
 810061c:	5ccb      	ldrb	r3, [r1, r3]
 810061e:	f003 031f 	and.w	r3, r3, #31
 8100622:	fa22 f303 	lsr.w	r3, r2, r3
 8100626:	607b      	str	r3, [r7, #4]
  common_system_clock = HAL_RCC_GetSysClockFreq() >> ((D1CorePrescTable[(RCC->CDCFGR1 & RCC_CDCFGR1_CDCPRE)>> RCC_CDCFGR1_CDCPRE_Pos]) & 0x1FU);
#endif

  /* Update the SystemD2Clock global variable */
#if defined(RCC_D1CFGR_HPRE)
  SystemD2Clock = (common_system_clock >> ((D1CorePrescTable[(RCC->D1CFGR & RCC_D1CFGR_HPRE)>> RCC_D1CFGR_HPRE_Pos]) & 0x1FU));
 8100628:	4b0f      	ldr	r3, [pc, #60]	@ (8100668 <HAL_Init+0xa8>)
 810062a:	699b      	ldr	r3, [r3, #24]
 810062c:	f003 030f 	and.w	r3, r3, #15
 8100630:	4a0f      	ldr	r2, [pc, #60]	@ (8100670 <HAL_Init+0xb0>)
 8100632:	5cd3      	ldrb	r3, [r2, r3]
 8100634:	f003 031f 	and.w	r3, r3, #31
 8100638:	687a      	ldr	r2, [r7, #4]
 810063a:	fa22 f303 	lsr.w	r3, r2, r3
 810063e:	4a0d      	ldr	r2, [pc, #52]	@ (8100674 <HAL_Init+0xb4>)
 8100640:	6013      	str	r3, [r2, #0]
#else
  SystemD2Clock = (common_system_clock >> ((D1CorePrescTable[(RCC->CDCFGR1 & RCC_CDCFGR1_HPRE)>> RCC_CDCFGR1_HPRE_Pos]) & 0x1FU));
#endif

#if defined(DUAL_CORE) && defined(CORE_CM4)
  SystemCoreClock = SystemD2Clock;
 8100642:	4b0c      	ldr	r3, [pc, #48]	@ (8100674 <HAL_Init+0xb4>)
 8100644:	681b      	ldr	r3, [r3, #0]
 8100646:	4a0c      	ldr	r2, [pc, #48]	@ (8100678 <HAL_Init+0xb8>)
 8100648:	6013      	str	r3, [r2, #0]
#else
  SystemCoreClock = common_system_clock;
#endif /* DUAL_CORE && CORE_CM4 */

  /* Use systick as time base source and configure 1ms tick (default clock after Reset is HSI) */
  if(HAL_InitTick(TICK_INT_PRIORITY) != HAL_OK)
 810064a:	2000      	movs	r0, #0
 810064c:	f000 f816 	bl	810067c <HAL_InitTick>
 8100650:	4603      	mov	r3, r0
 8100652:	2b00      	cmp	r3, #0
 8100654:	d001      	beq.n	810065a <HAL_Init+0x9a>
  {
    return HAL_ERROR;
 8100656:	2301      	movs	r3, #1
 8100658:	e002      	b.n	8100660 <HAL_Init+0xa0>
  }

  /* Init the low level hardware */
  HAL_MspInit();
 810065a:	f7ff fe9d 	bl	8100398 <HAL_MspInit>

  /* Return function status */
  return HAL_OK;
 810065e:	2300      	movs	r3, #0
}
 8100660:	4618      	mov	r0, r3
 8100662:	3708      	adds	r7, #8
 8100664:	46bd      	mov	sp, r7
 8100666:	bd80      	pop	{r7, pc}
 8100668:	58024400 	.word	0x58024400
 810066c:	40024400 	.word	0x40024400
 8100670:	081011b0 	.word	0x081011b0
 8100674:	10000004 	.word	0x10000004
 8100678:	10000000 	.word	0x10000000

0810067c <HAL_InitTick>:
  *       implementation  in user file.
  * @param TickPriority: Tick interrupt priority.
  * @retval HAL status
  */
__weak HAL_StatusTypeDef HAL_InitTick(uint32_t TickPriority)
{
 810067c:	b580      	push	{r7, lr}
 810067e:	b082      	sub	sp, #8
 8100680:	af00      	add	r7, sp, #0
 8100682:	6078      	str	r0, [r7, #4]
  /* Check uwTickFreq for MisraC 2012 (even if uwTickFreq is a enum type that don't take the value zero)*/
  if((uint32_t)uwTickFreq == 0UL)
 8100684:	4b15      	ldr	r3, [pc, #84]	@ (81006dc <HAL_InitTick+0x60>)
 8100686:	781b      	ldrb	r3, [r3, #0]
 8100688:	2b00      	cmp	r3, #0
 810068a:	d101      	bne.n	8100690 <HAL_InitTick+0x14>
  {
    return HAL_ERROR;
 810068c:	2301      	movs	r3, #1
 810068e:	e021      	b.n	81006d4 <HAL_InitTick+0x58>
  }

    /* Configure the SysTick to have interrupt in 1ms time basis*/
    if (HAL_SYSTICK_Config(SystemCoreClock / (1000UL / (uint32_t)uwTickFreq)) > 0U)
 8100690:	4b13      	ldr	r3, [pc, #76]	@ (81006e0 <HAL_InitTick+0x64>)
 8100692:	681a      	ldr	r2, [r3, #0]
 8100694:	4b11      	ldr	r3, [pc, #68]	@ (81006dc <HAL_InitTick+0x60>)
 8100696:	781b      	ldrb	r3, [r3, #0]
 8100698:	4619      	mov	r1, r3
 810069a:	f44f 737a 	mov.w	r3, #1000	@ 0x3e8
 810069e:	fbb3 f3f1 	udiv	r3, r3, r1
 81006a2:	fbb2 f3f3 	udiv	r3, r2, r3
 81006a6:	4618      	mov	r0, r3
 81006a8:	f000 f939 	bl	810091e <HAL_SYSTICK_Config>
 81006ac:	4603      	mov	r3, r0
 81006ae:	2b00      	cmp	r3, #0
 81006b0:	d001      	beq.n	81006b6 <HAL_InitTick+0x3a>
    {
      return HAL_ERROR;
 81006b2:	2301      	movs	r3, #1
 81006b4:	e00e      	b.n	81006d4 <HAL_InitTick+0x58>
    }

  /* Configure the SysTick IRQ priority */
  if (TickPriority < (1UL << __NVIC_PRIO_BITS))
 81006b6:	687b      	ldr	r3, [r7, #4]
 81006b8:	2b0f      	cmp	r3, #15
 81006ba:	d80a      	bhi.n	81006d2 <HAL_InitTick+0x56>
  {
    HAL_NVIC_SetPriority(SysTick_IRQn, TickPriority, 0U);
 81006bc:	2200      	movs	r2, #0
 81006be:	6879      	ldr	r1, [r7, #4]
 81006c0:	f04f 30ff 	mov.w	r0, #4294967295
 81006c4:	f000 f911 	bl	81008ea <HAL_NVIC_SetPriority>
    uwTickPrio = TickPriority;
 81006c8:	4a06      	ldr	r2, [pc, #24]	@ (81006e4 <HAL_InitTick+0x68>)
 81006ca:	687b      	ldr	r3, [r7, #4]
 81006cc:	6013      	str	r3, [r2, #0]
  {
    return HAL_ERROR;
  }

  /* Return function status */
  return HAL_OK;
 81006ce:	2300      	movs	r3, #0
 81006d0:	e000      	b.n	81006d4 <HAL_InitTick+0x58>
    return HAL_ERROR;
 81006d2:	2301      	movs	r3, #1
}
 81006d4:	4618      	mov	r0, r3
 81006d6:	3708      	adds	r7, #8
 81006d8:	46bd      	mov	sp, r7
 81006da:	bd80      	pop	{r7, pc}
 81006dc:	10000018 	.word	0x10000018
 81006e0:	10000000 	.word	0x10000000
 81006e4:	10000014 	.word	0x10000014

081006e8 <HAL_IncTick>:
 * @note This function is declared as __weak to be overwritten in case of other
  *      implementations in user file.
  * @retval None
  */
__weak void HAL_IncTick(void)
{
 81006e8:	b480      	push	{r7}
 81006ea:	af00      	add	r7, sp, #0
  uwTick += (uint32_t)uwTickFreq;
 81006ec:	4b06      	ldr	r3, [pc, #24]	@ (8100708 <HAL_IncTick+0x20>)
 81006ee:	781b      	ldrb	r3, [r3, #0]
 81006f0:	461a      	mov	r2, r3
 81006f2:	4b06      	ldr	r3, [pc, #24]	@ (810070c <HAL_IncTick+0x24>)
 81006f4:	681b      	ldr	r3, [r3, #0]
 81006f6:	4413      	add	r3, r2
 81006f8:	4a04      	ldr	r2, [pc, #16]	@ (810070c <HAL_IncTick+0x24>)
 81006fa:	6013      	str	r3, [r2, #0]
}
 81006fc:	bf00      	nop
 81006fe:	46bd      	mov	sp, r7
 8100700:	f85d 7b04 	ldr.w	r7, [sp], #4
 8100704:	4770      	bx	lr
 8100706:	bf00      	nop
 8100708:	10000018 	.word	0x10000018
 810070c:	10000038 	.word	0x10000038

08100710 <HAL_GetTick>:
  * @note This function is declared as __weak to be overwritten in case of other
  *       implementations in user file.
  * @retval tick value
  */
__weak uint32_t HAL_GetTick(void)
{
 8100710:	b480      	push	{r7}
 8100712:	af00      	add	r7, sp, #0
  return uwTick;
 8100714:	4b03      	ldr	r3, [pc, #12]	@ (8100724 <HAL_GetTick+0x14>)
 8100716:	681b      	ldr	r3, [r3, #0]
}
 8100718:	4618      	mov	r0, r3
 810071a:	46bd      	mov	sp, r7
 810071c:	f85d 7b04 	ldr.w	r7, [sp], #4
 8100720:	4770      	bx	lr
 8100722:	bf00      	nop
 8100724:	10000038 	.word	0x10000038

08100728 <HAL_Delay>:
  *       implementations in user file.
  * @param Delay  specifies the delay time length, in milliseconds.
  * @retval None
  */
__weak void HAL_Delay(uint32_t Delay)
{
 8100728:	b580      	push	{r7, lr}
 810072a:	b084      	sub	sp, #16
 810072c:	af00      	add	r7, sp, #0
 810072e:	6078      	str	r0, [r7, #4]
  uint32_t tickstart = HAL_GetTick();
 8100730:	f7ff ffee 	bl	8100710 <HAL_GetTick>
 8100734:	60b8      	str	r0, [r7, #8]
  uint32_t wait = Delay;
 8100736:	687b      	ldr	r3, [r7, #4]
 8100738:	60fb      	str	r3, [r7, #12]

  /* Add a freq to guarantee minimum wait */
  if (wait < HAL_MAX_DELAY)
 810073a:	68fb      	ldr	r3, [r7, #12]
 810073c:	f1b3 3fff 	cmp.w	r3, #4294967295
 8100740:	d005      	beq.n	810074e <HAL_Delay+0x26>
  {
    wait += (uint32_t)(uwTickFreq);
 8100742:	4b0a      	ldr	r3, [pc, #40]	@ (810076c <HAL_Delay+0x44>)
 8100744:	781b      	ldrb	r3, [r3, #0]
 8100746:	461a      	mov	r2, r3
 8100748:	68fb      	ldr	r3, [r7, #12]
 810074a:	4413      	add	r3, r2
 810074c:	60fb      	str	r3, [r7, #12]
  }

  while ((HAL_GetTick() - tickstart) < wait)
 810074e:	bf00      	nop
 8100750:	f7ff ffde 	bl	8100710 <HAL_GetTick>
 8100754:	4602      	mov	r2, r0
 8100756:	68bb      	ldr	r3, [r7, #8]
 8100758:	1ad3      	subs	r3, r2, r3
 810075a:	68fa      	ldr	r2, [r7, #12]
 810075c:	429a      	cmp	r2, r3
 810075e:	d8f7      	bhi.n	8100750 <HAL_Delay+0x28>
  {
  }
}
 8100760:	bf00      	nop
 8100762:	bf00      	nop
 8100764:	3710      	adds	r7, #16
 8100766:	46bd      	mov	sp, r7
 8100768:	bd80      	pop	{r7, pc}
 810076a:	bf00      	nop
 810076c:	10000018 	.word	0x10000018

08100770 <__NVIC_SetPriorityGrouping>:
           In case of a conflict between priority grouping and available
           priority bits (__NVIC_PRIO_BITS), the smallest possible priority group is set.
  \param [in]      PriorityGroup  Priority grouping field.
 */
__STATIC_INLINE void __NVIC_SetPriorityGrouping(uint32_t PriorityGroup)
{
 8100770:	b480      	push	{r7}
 8100772:	b085      	sub	sp, #20
 8100774:	af00      	add	r7, sp, #0
 8100776:	6078      	str	r0, [r7, #4]
  uint32_t reg_value;
  uint32_t PriorityGroupTmp = (PriorityGroup & (uint32_t)0x07UL);             /* only values 0..7 are used          */
 8100778:	687b      	ldr	r3, [r7, #4]
 810077a:	f003 0307 	and.w	r3, r3, #7
 810077e:	60fb      	str	r3, [r7, #12]

  reg_value  =  SCB->AIRCR;                                                   /* read old register configuration    */
 8100780:	4b0c      	ldr	r3, [pc, #48]	@ (81007b4 <__NVIC_SetPriorityGrouping+0x44>)
 8100782:	68db      	ldr	r3, [r3, #12]
 8100784:	60bb      	str	r3, [r7, #8]
  reg_value &= ~((uint32_t)(SCB_AIRCR_VECTKEY_Msk | SCB_AIRCR_PRIGROUP_Msk)); /* clear bits to change               */
 8100786:	68ba      	ldr	r2, [r7, #8]
 8100788:	f64f 03ff 	movw	r3, #63743	@ 0xf8ff
 810078c:	4013      	ands	r3, r2
 810078e:	60bb      	str	r3, [r7, #8]
  reg_value  =  (reg_value                                   |
                ((uint32_t)0x5FAUL << SCB_AIRCR_VECTKEY_Pos) |
                (PriorityGroupTmp << SCB_AIRCR_PRIGROUP_Pos)  );              /* Insert write key and priority group */
 8100790:	68fb      	ldr	r3, [r7, #12]
 8100792:	021a      	lsls	r2, r3, #8
                ((uint32_t)0x5FAUL << SCB_AIRCR_VECTKEY_Pos) |
 8100794:	68bb      	ldr	r3, [r7, #8]
 8100796:	4313      	orrs	r3, r2
  reg_value  =  (reg_value                                   |
 8100798:	f043 63bf 	orr.w	r3, r3, #100139008	@ 0x5f80000
 810079c:	f443 3300 	orr.w	r3, r3, #131072	@ 0x20000
 81007a0:	60bb      	str	r3, [r7, #8]
  SCB->AIRCR =  reg_value;
 81007a2:	4a04      	ldr	r2, [pc, #16]	@ (81007b4 <__NVIC_SetPriorityGrouping+0x44>)
 81007a4:	68bb      	ldr	r3, [r7, #8]
 81007a6:	60d3      	str	r3, [r2, #12]
}
 81007a8:	bf00      	nop
 81007aa:	3714      	adds	r7, #20
 81007ac:	46bd      	mov	sp, r7
 81007ae:	f85d 7b04 	ldr.w	r7, [sp], #4
 81007b2:	4770      	bx	lr
 81007b4:	e000ed00 	.word	0xe000ed00

081007b8 <__NVIC_GetPriorityGrouping>:
  \brief   Get Priority Grouping
  \details Reads the priority grouping field from the NVIC Interrupt Controller.
  \return                Priority grouping field (SCB->AIRCR [10:8] PRIGROUP field).
 */
__STATIC_INLINE uint32_t __NVIC_GetPriorityGrouping(void)
{
 81007b8:	b480      	push	{r7}
 81007ba:	af00      	add	r7, sp, #0
  return ((uint32_t)((SCB->AIRCR & SCB_AIRCR_PRIGROUP_Msk) >> SCB_AIRCR_PRIGROUP_Pos));
 81007bc:	4b04      	ldr	r3, [pc, #16]	@ (81007d0 <__NVIC_GetPriorityGrouping+0x18>)
 81007be:	68db      	ldr	r3, [r3, #12]
 81007c0:	0a1b      	lsrs	r3, r3, #8
 81007c2:	f003 0307 	and.w	r3, r3, #7
}
 81007c6:	4618      	mov	r0, r3
 81007c8:	46bd      	mov	sp, r7
 81007ca:	f85d 7b04 	ldr.w	r7, [sp], #4
 81007ce:	4770      	bx	lr
 81007d0:	e000ed00 	.word	0xe000ed00

081007d4 <__NVIC_SetPriority>:
  \param [in]      IRQn  Interrupt number.
  \param [in]  priority  Priority to set.
  \note    The priority cannot be set for every processor exception.
 */
__STATIC_INLINE void __NVIC_SetPriority(IRQn_Type IRQn, uint32_t priority)
{
 81007d4:	b480      	push	{r7}
 81007d6:	b083      	sub	sp, #12
 81007d8:	af00      	add	r7, sp, #0
 81007da:	4603      	mov	r3, r0
 81007dc:	6039      	str	r1, [r7, #0]
 81007de:	80fb      	strh	r3, [r7, #6]
  if ((int32_t)(IRQn) >= 0)
 81007e0:	f9b7 3006 	ldrsh.w	r3, [r7, #6]
 81007e4:	2b00      	cmp	r3, #0
 81007e6:	db0a      	blt.n	81007fe <__NVIC_SetPriority+0x2a>
  {
    NVIC->IP[((uint32_t)IRQn)]               = (uint8_t)((priority << (8U - __NVIC_PRIO_BITS)) & (uint32_t)0xFFUL);
 81007e8:	683b      	ldr	r3, [r7, #0]
 81007ea:	b2da      	uxtb	r2, r3
 81007ec:	490c      	ldr	r1, [pc, #48]	@ (8100820 <__NVIC_SetPriority+0x4c>)
 81007ee:	f9b7 3006 	ldrsh.w	r3, [r7, #6]
 81007f2:	0112      	lsls	r2, r2, #4
 81007f4:	b2d2      	uxtb	r2, r2
 81007f6:	440b      	add	r3, r1
 81007f8:	f883 2300 	strb.w	r2, [r3, #768]	@ 0x300
  }
  else
  {
    SCB->SHP[(((uint32_t)IRQn) & 0xFUL)-4UL] = (uint8_t)((priority << (8U - __NVIC_PRIO_BITS)) & (uint32_t)0xFFUL);
  }
}
 81007fc:	e00a      	b.n	8100814 <__NVIC_SetPriority+0x40>
    SCB->SHP[(((uint32_t)IRQn) & 0xFUL)-4UL] = (uint8_t)((priority << (8U - __NVIC_PRIO_BITS)) & (uint32_t)0xFFUL);
 81007fe:	683b      	ldr	r3, [r7, #0]
 8100800:	b2da      	uxtb	r2, r3
 8100802:	4908      	ldr	r1, [pc, #32]	@ (8100824 <__NVIC_SetPriority+0x50>)
 8100804:	88fb      	ldrh	r3, [r7, #6]
 8100806:	f003 030f 	and.w	r3, r3, #15
 810080a:	3b04      	subs	r3, #4
 810080c:	0112      	lsls	r2, r2, #4
 810080e:	b2d2      	uxtb	r2, r2
 8100810:	440b      	add	r3, r1
 8100812:	761a      	strb	r2, [r3, #24]
}
 8100814:	bf00      	nop
 8100816:	370c      	adds	r7, #12
 8100818:	46bd      	mov	sp, r7
 810081a:	f85d 7b04 	ldr.w	r7, [sp], #4
 810081e:	4770      	bx	lr
 8100820:	e000e100 	.word	0xe000e100
 8100824:	e000ed00 	.word	0xe000ed00

08100828 <NVIC_EncodePriority>:
  \param [in]   PreemptPriority  Preemptive priority value (starting from 0).
  \param [in]       SubPriority  Subpriority value (starting from 0).
  \return                        Encoded priority. Value can be used in the function \ref NVIC_SetPriority().
 */
__STATIC_INLINE uint32_t NVIC_EncodePriority (uint32_t PriorityGroup, uint32_t PreemptPriority, uint32_t SubPriority)
{
 8100828:	b480      	push	{r7}
 810082a:	b089      	sub	sp, #36	@ 0x24
 810082c:	af00      	add	r7, sp, #0
 810082e:	60f8      	str	r0, [r7, #12]
 8100830:	60b9      	str	r1, [r7, #8]
 8100832:	607a      	str	r2, [r7, #4]
  uint32_t PriorityGroupTmp = (PriorityGroup & (uint32_t)0x07UL);   /* only values 0..7 are used          */
 8100834:	68fb      	ldr	r3, [r7, #12]
 8100836:	f003 0307 	and.w	r3, r3, #7
 810083a:	61fb      	str	r3, [r7, #28]
  uint32_t PreemptPriorityBits;
  uint32_t SubPriorityBits;

  PreemptPriorityBits = ((7UL - PriorityGroupTmp) > (uint32_t)(__NVIC_PRIO_BITS)) ? (uint32_t)(__NVIC_PRIO_BITS) : (uint32_t)(7UL - PriorityGroupTmp);
 810083c:	69fb      	ldr	r3, [r7, #28]
 810083e:	f1c3 0307 	rsb	r3, r3, #7
 8100842:	2b04      	cmp	r3, #4
 8100844:	bf28      	it	cs
 8100846:	2304      	movcs	r3, #4
 8100848:	61bb      	str	r3, [r7, #24]
  SubPriorityBits     = ((PriorityGroupTmp + (uint32_t)(__NVIC_PRIO_BITS)) < (uint32_t)7UL) ? (uint32_t)0UL : (uint32_t)((PriorityGroupTmp - 7UL) + (uint32_t)(__NVIC_PRIO_BITS));
 810084a:	69fb      	ldr	r3, [r7, #28]
 810084c:	3304      	adds	r3, #4
 810084e:	2b06      	cmp	r3, #6
 8100850:	d902      	bls.n	8100858 <NVIC_EncodePriority+0x30>
 8100852:	69fb      	ldr	r3, [r7, #28]
 8100854:	3b03      	subs	r3, #3
 8100856:	e000      	b.n	810085a <NVIC_EncodePriority+0x32>
 8100858:	2300      	movs	r3, #0
 810085a:	617b      	str	r3, [r7, #20]

  return (
           ((PreemptPriority & (uint32_t)((1UL << (PreemptPriorityBits)) - 1UL)) << SubPriorityBits) |
 810085c:	f04f 32ff 	mov.w	r2, #4294967295
 8100860:	69bb      	ldr	r3, [r7, #24]
 8100862:	fa02 f303 	lsl.w	r3, r2, r3
 8100866:	43da      	mvns	r2, r3
 8100868:	68bb      	ldr	r3, [r7, #8]
 810086a:	401a      	ands	r2, r3
 810086c:	697b      	ldr	r3, [r7, #20]
 810086e:	409a      	lsls	r2, r3
           ((SubPriority     & (uint32_t)((1UL << (SubPriorityBits    )) - 1UL)))
 8100870:	f04f 31ff 	mov.w	r1, #4294967295
 8100874:	697b      	ldr	r3, [r7, #20]
 8100876:	fa01 f303 	lsl.w	r3, r1, r3
 810087a:	43d9      	mvns	r1, r3
 810087c:	687b      	ldr	r3, [r7, #4]
 810087e:	400b      	ands	r3, r1
           ((PreemptPriority & (uint32_t)((1UL << (PreemptPriorityBits)) - 1UL)) << SubPriorityBits) |
 8100880:	4313      	orrs	r3, r2
         );
}
 8100882:	4618      	mov	r0, r3
 8100884:	3724      	adds	r7, #36	@ 0x24
 8100886:	46bd      	mov	sp, r7
 8100888:	f85d 7b04 	ldr.w	r7, [sp], #4
 810088c:	4770      	bx	lr
	...

08100890 <SysTick_Config>:
  \note    When the variable <b>__Vendor_SysTickConfig</b> is set to 1, then the
           function <b>SysTick_Config</b> is not included. In this case, the file <b><i>device</i>.h</b>
           must contain a vendor-specific implementation of this function.
 */
__STATIC_INLINE uint32_t SysTick_Config(uint32_t ticks)
{
 8100890:	b580      	push	{r7, lr}
 8100892:	b082      	sub	sp, #8
 8100894:	af00      	add	r7, sp, #0
 8100896:	6078      	str	r0, [r7, #4]
  if ((ticks - 1UL) > SysTick_LOAD_RELOAD_Msk)
 8100898:	687b      	ldr	r3, [r7, #4]
 810089a:	3b01      	subs	r3, #1
 810089c:	f1b3 7f80 	cmp.w	r3, #16777216	@ 0x1000000
 81008a0:	d301      	bcc.n	81008a6 <SysTick_Config+0x16>
  {
    return (1UL);                                                   /* Reload value impossible */
 81008a2:	2301      	movs	r3, #1
 81008a4:	e00f      	b.n	81008c6 <SysTick_Config+0x36>
  }

  SysTick->LOAD  = (uint32_t)(ticks - 1UL);                         /* set reload register */
 81008a6:	4a0a      	ldr	r2, [pc, #40]	@ (81008d0 <SysTick_Config+0x40>)
 81008a8:	687b      	ldr	r3, [r7, #4]
 81008aa:	3b01      	subs	r3, #1
 81008ac:	6053      	str	r3, [r2, #4]
  NVIC_SetPriority (SysTick_IRQn, (1UL << __NVIC_PRIO_BITS) - 1UL); /* set Priority for Systick Interrupt */
 81008ae:	210f      	movs	r1, #15
 81008b0:	f04f 30ff 	mov.w	r0, #4294967295
 81008b4:	f7ff ff8e 	bl	81007d4 <__NVIC_SetPriority>
  SysTick->VAL   = 0UL;                                             /* Load the SysTick Counter Value */
 81008b8:	4b05      	ldr	r3, [pc, #20]	@ (81008d0 <SysTick_Config+0x40>)
 81008ba:	2200      	movs	r2, #0
 81008bc:	609a      	str	r2, [r3, #8]
  SysTick->CTRL  = SysTick_CTRL_CLKSOURCE_Msk |
 81008be:	4b04      	ldr	r3, [pc, #16]	@ (81008d0 <SysTick_Config+0x40>)
 81008c0:	2207      	movs	r2, #7
 81008c2:	601a      	str	r2, [r3, #0]
                   SysTick_CTRL_TICKINT_Msk   |
                   SysTick_CTRL_ENABLE_Msk;                         /* Enable SysTick IRQ and SysTick Timer */
  return (0UL);                                                     /* Function successful */
 81008c4:	2300      	movs	r3, #0
}
 81008c6:	4618      	mov	r0, r3
 81008c8:	3708      	adds	r7, #8
 81008ca:	46bd      	mov	sp, r7
 81008cc:	bd80      	pop	{r7, pc}
 81008ce:	bf00      	nop
 81008d0:	e000e010 	.word	0xe000e010

081008d4 <HAL_NVIC_SetPriorityGrouping>:
  * @note   When the NVIC_PriorityGroup_0 is selected, IRQ preemption is no more possible.
  *         The pending IRQ priority will be managed only by the subpriority.
  * @retval None
  */
void HAL_NVIC_SetPriorityGrouping(uint32_t PriorityGroup)
{
 81008d4:	b580      	push	{r7, lr}
 81008d6:	b082      	sub	sp, #8
 81008d8:	af00      	add	r7, sp, #0
 81008da:	6078      	str	r0, [r7, #4]
  /* Check the parameters */
  assert_param(IS_NVIC_PRIORITY_GROUP(PriorityGroup));

  /* Set the PRIGROUP[10:8] bits according to the PriorityGroup parameter value */
  NVIC_SetPriorityGrouping(PriorityGroup);
 81008dc:	6878      	ldr	r0, [r7, #4]
 81008de:	f7ff ff47 	bl	8100770 <__NVIC_SetPriorityGrouping>
}
 81008e2:	bf00      	nop
 81008e4:	3708      	adds	r7, #8
 81008e6:	46bd      	mov	sp, r7
 81008e8:	bd80      	pop	{r7, pc}

081008ea <HAL_NVIC_SetPriority>:
  *         This parameter can be a value between 0 and 15
  *         A lower priority value indicates a higher priority.
  * @retval None
  */
void HAL_NVIC_SetPriority(IRQn_Type IRQn, uint32_t PreemptPriority, uint32_t SubPriority)
{
 81008ea:	b580      	push	{r7, lr}
 81008ec:	b086      	sub	sp, #24
 81008ee:	af00      	add	r7, sp, #0
 81008f0:	4603      	mov	r3, r0
 81008f2:	60b9      	str	r1, [r7, #8]
 81008f4:	607a      	str	r2, [r7, #4]
 81008f6:	81fb      	strh	r3, [r7, #14]

  /* Check the parameters */
  assert_param(IS_NVIC_SUB_PRIORITY(SubPriority));
  assert_param(IS_NVIC_PREEMPTION_PRIORITY(PreemptPriority));

  prioritygroup = NVIC_GetPriorityGrouping();
 81008f8:	f7ff ff5e 	bl	81007b8 <__NVIC_GetPriorityGrouping>
 81008fc:	6178      	str	r0, [r7, #20]

  NVIC_SetPriority(IRQn, NVIC_EncodePriority(prioritygroup, PreemptPriority, SubPriority));
 81008fe:	687a      	ldr	r2, [r7, #4]
 8100900:	68b9      	ldr	r1, [r7, #8]
 8100902:	6978      	ldr	r0, [r7, #20]
 8100904:	f7ff ff90 	bl	8100828 <NVIC_EncodePriority>
 8100908:	4602      	mov	r2, r0
 810090a:	f9b7 300e 	ldrsh.w	r3, [r7, #14]
 810090e:	4611      	mov	r1, r2
 8100910:	4618      	mov	r0, r3
 8100912:	f7ff ff5f 	bl	81007d4 <__NVIC_SetPriority>
}
 8100916:	bf00      	nop
 8100918:	3718      	adds	r7, #24
 810091a:	46bd      	mov	sp, r7
 810091c:	bd80      	pop	{r7, pc}

0810091e <HAL_SYSTICK_Config>:
  * @param  TicksNumb Specifies the ticks Number of ticks between two interrupts.
  * @retval status   - 0  Function succeeded.
  *                  - 1  Function failed.
  */
uint32_t HAL_SYSTICK_Config(uint32_t TicksNumb)
{
 810091e:	b580      	push	{r7, lr}
 8100920:	b082      	sub	sp, #8
 8100922:	af00      	add	r7, sp, #0
 8100924:	6078      	str	r0, [r7, #4]
   return SysTick_Config(TicksNumb);
 8100926:	6878      	ldr	r0, [r7, #4]
 8100928:	f7ff ffb2 	bl	8100890 <SysTick_Config>
 810092c:	4603      	mov	r3, r0
}
 810092e:	4618      	mov	r0, r3
 8100930:	3708      	adds	r7, #8
 8100932:	46bd      	mov	sp, r7
 8100934:	bd80      	pop	{r7, pc}
	...

08100938 <HAL_GetCurrentCPUID>:
/**
  * @brief  Returns the current CPU ID.
  * @retval CPU identifier
  */
uint32_t HAL_GetCurrentCPUID(void)
{
 8100938:	b480      	push	{r7}
 810093a:	af00      	add	r7, sp, #0
  if (((SCB->CPUID & 0x000000F0U) >> 4 )== 0x7U)
 810093c:	4b07      	ldr	r3, [pc, #28]	@ (810095c <HAL_GetCurrentCPUID+0x24>)
 810093e:	681b      	ldr	r3, [r3, #0]
 8100940:	091b      	lsrs	r3, r3, #4
 8100942:	f003 030f 	and.w	r3, r3, #15
 8100946:	2b07      	cmp	r3, #7
 8100948:	d101      	bne.n	810094e <HAL_GetCurrentCPUID+0x16>
  {
    return  CM7_CPUID;
 810094a:	2303      	movs	r3, #3
 810094c:	e000      	b.n	8100950 <HAL_GetCurrentCPUID+0x18>
  }
  else
  {
    return CM4_CPUID;
 810094e:	2301      	movs	r3, #1
  }
}
 8100950:	4618      	mov	r0, r3
 8100952:	46bd      	mov	sp, r7
 8100954:	f85d 7b04 	ldr.w	r7, [sp], #4
 8100958:	4770      	bx	lr
 810095a:	bf00      	nop
 810095c:	e000ed00 	.word	0xe000ed00

08100960 <HAL_GPIO_Init>:
  * @param  GPIO_Init: pointer to a GPIO_InitTypeDef structure that contains
  *         the configuration information for the specified GPIO peripheral.
  * @retval None
  */
void HAL_GPIO_Init(GPIO_TypeDef  *GPIOx, GPIO_InitTypeDef *GPIO_Init)
{
 8100960:	b480      	push	{r7}
 8100962:	b089      	sub	sp, #36	@ 0x24
 8100964:	af00      	add	r7, sp, #0
 8100966:	6078      	str	r0, [r7, #4]
 8100968:	6039      	str	r1, [r7, #0]
  uint32_t position = 0x00U;
 810096a:	2300      	movs	r3, #0
 810096c:	61fb      	str	r3, [r7, #28]
  uint32_t iocurrent;
  uint32_t temp;
  EXTI_Core_TypeDef *EXTI_CurrentCPU;

#if defined(DUAL_CORE) && defined(CORE_CM4)
  EXTI_CurrentCPU = EXTI_D2; /* EXTI for CM4 CPU */
 810096e:	4b89      	ldr	r3, [pc, #548]	@ (8100b94 <HAL_GPIO_Init+0x234>)
 8100970:	617b      	str	r3, [r7, #20]
  assert_param(IS_GPIO_ALL_INSTANCE(GPIOx));
  assert_param(IS_GPIO_PIN(GPIO_Init->Pin));
  assert_param(IS_GPIO_MODE(GPIO_Init->Mode));

  /* Configure the port pins */
  while (((GPIO_Init->Pin) >> position) != 0x00U)
 8100972:	e194      	b.n	8100c9e <HAL_GPIO_Init+0x33e>
  {
    /* Get current io position */
    iocurrent = (GPIO_Init->Pin) & (1UL << position);
 8100974:	683b      	ldr	r3, [r7, #0]
 8100976:	681a      	ldr	r2, [r3, #0]
 8100978:	2101      	movs	r1, #1
 810097a:	69fb      	ldr	r3, [r7, #28]
 810097c:	fa01 f303 	lsl.w	r3, r1, r3
 8100980:	4013      	ands	r3, r2
 8100982:	613b      	str	r3, [r7, #16]

    if (iocurrent != 0x00U)
 8100984:	693b      	ldr	r3, [r7, #16]
 8100986:	2b00      	cmp	r3, #0
 8100988:	f000 8186 	beq.w	8100c98 <HAL_GPIO_Init+0x338>
    {
      /*--------------------- GPIO Mode Configuration ------------------------*/
      /* In case of Output or Alternate function mode selection */
      if (((GPIO_Init->Mode & GPIO_MODE) == MODE_OUTPUT) || ((GPIO_Init->Mode & GPIO_MODE) == MODE_AF))
 810098c:	683b      	ldr	r3, [r7, #0]
 810098e:	685b      	ldr	r3, [r3, #4]
 8100990:	f003 0303 	and.w	r3, r3, #3
 8100994:	2b01      	cmp	r3, #1
 8100996:	d005      	beq.n	81009a4 <HAL_GPIO_Init+0x44>
 8100998:	683b      	ldr	r3, [r7, #0]
 810099a:	685b      	ldr	r3, [r3, #4]
 810099c:	f003 0303 	and.w	r3, r3, #3
 81009a0:	2b02      	cmp	r3, #2
 81009a2:	d130      	bne.n	8100a06 <HAL_GPIO_Init+0xa6>
      {
        /* Check the Speed parameter */
        assert_param(IS_GPIO_SPEED(GPIO_Init->Speed));

        /* Configure the IO Speed */
        temp = GPIOx->OSPEEDR;
 81009a4:	687b      	ldr	r3, [r7, #4]
 81009a6:	689b      	ldr	r3, [r3, #8]
 81009a8:	61bb      	str	r3, [r7, #24]
        temp &= ~(GPIO_OSPEEDR_OSPEED0 << (position * 2U));
 81009aa:	69fb      	ldr	r3, [r7, #28]
 81009ac:	005b      	lsls	r3, r3, #1
 81009ae:	2203      	movs	r2, #3
 81009b0:	fa02 f303 	lsl.w	r3, r2, r3
 81009b4:	43db      	mvns	r3, r3
 81009b6:	69ba      	ldr	r2, [r7, #24]
 81009b8:	4013      	ands	r3, r2
 81009ba:	61bb      	str	r3, [r7, #24]
        temp |= (GPIO_Init->Speed << (position * 2U));
 81009bc:	683b      	ldr	r3, [r7, #0]
 81009be:	68da      	ldr	r2, [r3, #12]
 81009c0:	69fb      	ldr	r3, [r7, #28]
 81009c2:	005b      	lsls	r3, r3, #1
 81009c4:	fa02 f303 	lsl.w	r3, r2, r3
 81009c8:	69ba      	ldr	r2, [r7, #24]
 81009ca:	4313      	orrs	r3, r2
 81009cc:	61bb      	str	r3, [r7, #24]
        GPIOx->OSPEEDR = temp;
 81009ce:	687b      	ldr	r3, [r7, #4]
 81009d0:	69ba      	ldr	r2, [r7, #24]
 81009d2:	609a      	str	r2, [r3, #8]

        /* Configure the IO Output Type */
        temp = GPIOx->OTYPER;
 81009d4:	687b      	ldr	r3, [r7, #4]
 81009d6:	685b      	ldr	r3, [r3, #4]
 81009d8:	61bb      	str	r3, [r7, #24]
        temp &= ~(GPIO_OTYPER_OT0 << position) ;
 81009da:	2201      	movs	r2, #1
 81009dc:	69fb      	ldr	r3, [r7, #28]
 81009de:	fa02 f303 	lsl.w	r3, r2, r3
 81009e2:	43db      	mvns	r3, r3
 81009e4:	69ba      	ldr	r2, [r7, #24]
 81009e6:	4013      	ands	r3, r2
 81009e8:	61bb      	str	r3, [r7, #24]
        temp |= (((GPIO_Init->Mode & OUTPUT_TYPE) >> OUTPUT_TYPE_Pos) << position);
 81009ea:	683b      	ldr	r3, [r7, #0]
 81009ec:	685b      	ldr	r3, [r3, #4]
 81009ee:	091b      	lsrs	r3, r3, #4
 81009f0:	f003 0201 	and.w	r2, r3, #1
 81009f4:	69fb      	ldr	r3, [r7, #28]
 81009f6:	fa02 f303 	lsl.w	r3, r2, r3
 81009fa:	69ba      	ldr	r2, [r7, #24]
 81009fc:	4313      	orrs	r3, r2
 81009fe:	61bb      	str	r3, [r7, #24]
        GPIOx->OTYPER = temp;
 8100a00:	687b      	ldr	r3, [r7, #4]
 8100a02:	69ba      	ldr	r2, [r7, #24]
 8100a04:	605a      	str	r2, [r3, #4]
      }

      if ((GPIO_Init->Mode & GPIO_MODE) != MODE_ANALOG)
 8100a06:	683b      	ldr	r3, [r7, #0]
 8100a08:	685b      	ldr	r3, [r3, #4]
 8100a0a:	f003 0303 	and.w	r3, r3, #3
 8100a0e:	2b03      	cmp	r3, #3
 8100a10:	d017      	beq.n	8100a42 <HAL_GPIO_Init+0xe2>
      {
       /* Check the Pull parameter */
       assert_param(IS_GPIO_PULL(GPIO_Init->Pull));

      /* Activate the Pull-up or Pull down resistor for the current IO */
      temp = GPIOx->PUPDR;
 8100a12:	687b      	ldr	r3, [r7, #4]
 8100a14:	68db      	ldr	r3, [r3, #12]
 8100a16:	61bb      	str	r3, [r7, #24]
      temp &= ~(GPIO_PUPDR_PUPD0 << (position * 2U));
 8100a18:	69fb      	ldr	r3, [r7, #28]
 8100a1a:	005b      	lsls	r3, r3, #1
 8100a1c:	2203      	movs	r2, #3
 8100a1e:	fa02 f303 	lsl.w	r3, r2, r3
 8100a22:	43db      	mvns	r3, r3
 8100a24:	69ba      	ldr	r2, [r7, #24]
 8100a26:	4013      	ands	r3, r2
 8100a28:	61bb      	str	r3, [r7, #24]
      temp |= ((GPIO_Init->Pull) << (position * 2U));
 8100a2a:	683b      	ldr	r3, [r7, #0]
 8100a2c:	689a      	ldr	r2, [r3, #8]
 8100a2e:	69fb      	ldr	r3, [r7, #28]
 8100a30:	005b      	lsls	r3, r3, #1
 8100a32:	fa02 f303 	lsl.w	r3, r2, r3
 8100a36:	69ba      	ldr	r2, [r7, #24]
 8100a38:	4313      	orrs	r3, r2
 8100a3a:	61bb      	str	r3, [r7, #24]
      GPIOx->PUPDR = temp;
 8100a3c:	687b      	ldr	r3, [r7, #4]
 8100a3e:	69ba      	ldr	r2, [r7, #24]
 8100a40:	60da      	str	r2, [r3, #12]
      }

      /* In case of Alternate function mode selection */
      if ((GPIO_Init->Mode & GPIO_MODE) == MODE_AF)
 8100a42:	683b      	ldr	r3, [r7, #0]
 8100a44:	685b      	ldr	r3, [r3, #4]
 8100a46:	f003 0303 	and.w	r3, r3, #3
 8100a4a:	2b02      	cmp	r3, #2
 8100a4c:	d123      	bne.n	8100a96 <HAL_GPIO_Init+0x136>
        /* Check the Alternate function parameters */
        assert_param(IS_GPIO_AF_INSTANCE(GPIOx));
        assert_param(IS_GPIO_AF(GPIO_Init->Alternate));

        /* Configure Alternate function mapped with the current IO */
        temp = GPIOx->AFR[position >> 3U];
 8100a4e:	69fb      	ldr	r3, [r7, #28]
 8100a50:	08da      	lsrs	r2, r3, #3
 8100a52:	687b      	ldr	r3, [r7, #4]
 8100a54:	3208      	adds	r2, #8
 8100a56:	f853 3022 	ldr.w	r3, [r3, r2, lsl #2]
 8100a5a:	61bb      	str	r3, [r7, #24]
        temp &= ~(0xFU << ((position & 0x07U) * 4U));
 8100a5c:	69fb      	ldr	r3, [r7, #28]
 8100a5e:	f003 0307 	and.w	r3, r3, #7
 8100a62:	009b      	lsls	r3, r3, #2
 8100a64:	220f      	movs	r2, #15
 8100a66:	fa02 f303 	lsl.w	r3, r2, r3
 8100a6a:	43db      	mvns	r3, r3
 8100a6c:	69ba      	ldr	r2, [r7, #24]
 8100a6e:	4013      	ands	r3, r2
 8100a70:	61bb      	str	r3, [r7, #24]
        temp |= ((GPIO_Init->Alternate) << ((position & 0x07U) * 4U));
 8100a72:	683b      	ldr	r3, [r7, #0]
 8100a74:	691a      	ldr	r2, [r3, #16]
 8100a76:	69fb      	ldr	r3, [r7, #28]
 8100a78:	f003 0307 	and.w	r3, r3, #7
 8100a7c:	009b      	lsls	r3, r3, #2
 8100a7e:	fa02 f303 	lsl.w	r3, r2, r3
 8100a82:	69ba      	ldr	r2, [r7, #24]
 8100a84:	4313      	orrs	r3, r2
 8100a86:	61bb      	str	r3, [r7, #24]
        GPIOx->AFR[position >> 3U] = temp;
 8100a88:	69fb      	ldr	r3, [r7, #28]
 8100a8a:	08da      	lsrs	r2, r3, #3
 8100a8c:	687b      	ldr	r3, [r7, #4]
 8100a8e:	3208      	adds	r2, #8
 8100a90:	69b9      	ldr	r1, [r7, #24]
 8100a92:	f843 1022 	str.w	r1, [r3, r2, lsl #2]
      }

      /* Configure IO Direction mode (Input, Output, Alternate or Analog) */
      temp = GPIOx->MODER;
 8100a96:	687b      	ldr	r3, [r7, #4]
 8100a98:	681b      	ldr	r3, [r3, #0]
 8100a9a:	61bb      	str	r3, [r7, #24]
      temp &= ~(GPIO_MODER_MODE0 << (position * 2U));
 8100a9c:	69fb      	ldr	r3, [r7, #28]
 8100a9e:	005b      	lsls	r3, r3, #1
 8100aa0:	2203      	movs	r2, #3
 8100aa2:	fa02 f303 	lsl.w	r3, r2, r3
 8100aa6:	43db      	mvns	r3, r3
 8100aa8:	69ba      	ldr	r2, [r7, #24]
 8100aaa:	4013      	ands	r3, r2
 8100aac:	61bb      	str	r3, [r7, #24]
      temp |= ((GPIO_Init->Mode & GPIO_MODE) << (position * 2U));
 8100aae:	683b      	ldr	r3, [r7, #0]
 8100ab0:	685b      	ldr	r3, [r3, #4]
 8100ab2:	f003 0203 	and.w	r2, r3, #3
 8100ab6:	69fb      	ldr	r3, [r7, #28]
 8100ab8:	005b      	lsls	r3, r3, #1
 8100aba:	fa02 f303 	lsl.w	r3, r2, r3
 8100abe:	69ba      	ldr	r2, [r7, #24]
 8100ac0:	4313      	orrs	r3, r2
 8100ac2:	61bb      	str	r3, [r7, #24]
      GPIOx->MODER = temp;
 8100ac4:	687b      	ldr	r3, [r7, #4]
 8100ac6:	69ba      	ldr	r2, [r7, #24]
 8100ac8:	601a      	str	r2, [r3, #0]

      /*--------------------- EXTI Mode Configuration ------------------------*/
      /* Configure the External Interrupt or event for the current IO */
      if ((GPIO_Init->Mode & EXTI_MODE) != 0x00U)
 8100aca:	683b      	ldr	r3, [r7, #0]
 8100acc:	685b      	ldr	r3, [r3, #4]
 8100ace:	f403 3340 	and.w	r3, r3, #196608	@ 0x30000
 8100ad2:	2b00      	cmp	r3, #0
 8100ad4:	f000 80e0 	beq.w	8100c98 <HAL_GPIO_Init+0x338>
      {
        /* Enable SYSCFG Clock */
        __HAL_RCC_SYSCFG_CLK_ENABLE();
 8100ad8:	4b2f      	ldr	r3, [pc, #188]	@ (8100b98 <HAL_GPIO_Init+0x238>)
 8100ada:	f8d3 30f4 	ldr.w	r3, [r3, #244]	@ 0xf4
 8100ade:	4a2e      	ldr	r2, [pc, #184]	@ (8100b98 <HAL_GPIO_Init+0x238>)
 8100ae0:	f043 0302 	orr.w	r3, r3, #2
 8100ae4:	f8c2 30f4 	str.w	r3, [r2, #244]	@ 0xf4
 8100ae8:	4b2b      	ldr	r3, [pc, #172]	@ (8100b98 <HAL_GPIO_Init+0x238>)
 8100aea:	f8d3 30f4 	ldr.w	r3, [r3, #244]	@ 0xf4
 8100aee:	f003 0302 	and.w	r3, r3, #2
 8100af2:	60fb      	str	r3, [r7, #12]
 8100af4:	68fb      	ldr	r3, [r7, #12]

        temp = SYSCFG->EXTICR[position >> 2U];
 8100af6:	4a29      	ldr	r2, [pc, #164]	@ (8100b9c <HAL_GPIO_Init+0x23c>)
 8100af8:	69fb      	ldr	r3, [r7, #28]
 8100afa:	089b      	lsrs	r3, r3, #2
 8100afc:	3302      	adds	r3, #2
 8100afe:	f852 3023 	ldr.w	r3, [r2, r3, lsl #2]
 8100b02:	61bb      	str	r3, [r7, #24]
        temp &= ~(0x0FUL << (4U * (position & 0x03U)));
 8100b04:	69fb      	ldr	r3, [r7, #28]
 8100b06:	f003 0303 	and.w	r3, r3, #3
 8100b0a:	009b      	lsls	r3, r3, #2
 8100b0c:	220f      	movs	r2, #15
 8100b0e:	fa02 f303 	lsl.w	r3, r2, r3
 8100b12:	43db      	mvns	r3, r3
 8100b14:	69ba      	ldr	r2, [r7, #24]
 8100b16:	4013      	ands	r3, r2
 8100b18:	61bb      	str	r3, [r7, #24]
        temp |= (GPIO_GET_INDEX(GPIOx) << (4U * (position & 0x03U)));
 8100b1a:	687b      	ldr	r3, [r7, #4]
 8100b1c:	4a20      	ldr	r2, [pc, #128]	@ (8100ba0 <HAL_GPIO_Init+0x240>)
 8100b1e:	4293      	cmp	r3, r2
 8100b20:	d052      	beq.n	8100bc8 <HAL_GPIO_Init+0x268>
 8100b22:	687b      	ldr	r3, [r7, #4]
 8100b24:	4a1f      	ldr	r2, [pc, #124]	@ (8100ba4 <HAL_GPIO_Init+0x244>)
 8100b26:	4293      	cmp	r3, r2
 8100b28:	d031      	beq.n	8100b8e <HAL_GPIO_Init+0x22e>
 8100b2a:	687b      	ldr	r3, [r7, #4]
 8100b2c:	4a1e      	ldr	r2, [pc, #120]	@ (8100ba8 <HAL_GPIO_Init+0x248>)
 8100b2e:	4293      	cmp	r3, r2
 8100b30:	d02b      	beq.n	8100b8a <HAL_GPIO_Init+0x22a>
 8100b32:	687b      	ldr	r3, [r7, #4]
 8100b34:	4a1d      	ldr	r2, [pc, #116]	@ (8100bac <HAL_GPIO_Init+0x24c>)
 8100b36:	4293      	cmp	r3, r2
 8100b38:	d025      	beq.n	8100b86 <HAL_GPIO_Init+0x226>
 8100b3a:	687b      	ldr	r3, [r7, #4]
 8100b3c:	4a1c      	ldr	r2, [pc, #112]	@ (8100bb0 <HAL_GPIO_Init+0x250>)
 8100b3e:	4293      	cmp	r3, r2
 8100b40:	d01f      	beq.n	8100b82 <HAL_GPIO_Init+0x222>
 8100b42:	687b      	ldr	r3, [r7, #4]
 8100b44:	4a1b      	ldr	r2, [pc, #108]	@ (8100bb4 <HAL_GPIO_Init+0x254>)
 8100b46:	4293      	cmp	r3, r2
 8100b48:	d019      	beq.n	8100b7e <HAL_GPIO_Init+0x21e>
 8100b4a:	687b      	ldr	r3, [r7, #4]
 8100b4c:	4a1a      	ldr	r2, [pc, #104]	@ (8100bb8 <HAL_GPIO_Init+0x258>)
 8100b4e:	4293      	cmp	r3, r2
 8100b50:	d013      	beq.n	8100b7a <HAL_GPIO_Init+0x21a>
 8100b52:	687b      	ldr	r3, [r7, #4]
 8100b54:	4a19      	ldr	r2, [pc, #100]	@ (8100bbc <HAL_GPIO_Init+0x25c>)
 8100b56:	4293      	cmp	r3, r2
 8100b58:	d00d      	beq.n	8100b76 <HAL_GPIO_Init+0x216>
 8100b5a:	687b      	ldr	r3, [r7, #4]
 8100b5c:	4a18      	ldr	r2, [pc, #96]	@ (8100bc0 <HAL_GPIO_Init+0x260>)
 8100b5e:	4293      	cmp	r3, r2
 8100b60:	d007      	beq.n	8100b72 <HAL_GPIO_Init+0x212>
 8100b62:	687b      	ldr	r3, [r7, #4]
 8100b64:	4a17      	ldr	r2, [pc, #92]	@ (8100bc4 <HAL_GPIO_Init+0x264>)
 8100b66:	4293      	cmp	r3, r2
 8100b68:	d101      	bne.n	8100b6e <HAL_GPIO_Init+0x20e>
 8100b6a:	2309      	movs	r3, #9
 8100b6c:	e02d      	b.n	8100bca <HAL_GPIO_Init+0x26a>
 8100b6e:	230a      	movs	r3, #10
 8100b70:	e02b      	b.n	8100bca <HAL_GPIO_Init+0x26a>
 8100b72:	2308      	movs	r3, #8
 8100b74:	e029      	b.n	8100bca <HAL_GPIO_Init+0x26a>
 8100b76:	2307      	movs	r3, #7
 8100b78:	e027      	b.n	8100bca <HAL_GPIO_Init+0x26a>
 8100b7a:	2306      	movs	r3, #6
 8100b7c:	e025      	b.n	8100bca <HAL_GPIO_Init+0x26a>
 8100b7e:	2305      	movs	r3, #5
 8100b80:	e023      	b.n	8100bca <HAL_GPIO_Init+0x26a>
 8100b82:	2304      	movs	r3, #4
 8100b84:	e021      	b.n	8100bca <HAL_GPIO_Init+0x26a>
 8100b86:	2303      	movs	r3, #3
 8100b88:	e01f      	b.n	8100bca <HAL_GPIO_Init+0x26a>
 8100b8a:	2302      	movs	r3, #2
 8100b8c:	e01d      	b.n	8100bca <HAL_GPIO_Init+0x26a>
 8100b8e:	2301      	movs	r3, #1
 8100b90:	e01b      	b.n	8100bca <HAL_GPIO_Init+0x26a>
 8100b92:	bf00      	nop
 8100b94:	580000c0 	.word	0x580000c0
 8100b98:	58024400 	.word	0x58024400
 8100b9c:	58000400 	.word	0x58000400
 8100ba0:	58020000 	.word	0x58020000
 8100ba4:	58020400 	.word	0x58020400
 8100ba8:	58020800 	.word	0x58020800
 8100bac:	58020c00 	.word	0x58020c00
 8100bb0:	58021000 	.word	0x58021000
 8100bb4:	58021400 	.word	0x58021400
 8100bb8:	58021800 	.word	0x58021800
 8100bbc:	58021c00 	.word	0x58021c00
 8100bc0:	58022000 	.word	0x58022000
 8100bc4:	58022400 	.word	0x58022400
 8100bc8:	2300      	movs	r3, #0
 8100bca:	69fa      	ldr	r2, [r7, #28]
 8100bcc:	f002 0203 	and.w	r2, r2, #3
 8100bd0:	0092      	lsls	r2, r2, #2
 8100bd2:	4093      	lsls	r3, r2
 8100bd4:	69ba      	ldr	r2, [r7, #24]
 8100bd6:	4313      	orrs	r3, r2
 8100bd8:	61bb      	str	r3, [r7, #24]
        SYSCFG->EXTICR[position >> 2U] = temp;
 8100bda:	4938      	ldr	r1, [pc, #224]	@ (8100cbc <HAL_GPIO_Init+0x35c>)
 8100bdc:	69fb      	ldr	r3, [r7, #28]
 8100bde:	089b      	lsrs	r3, r3, #2
 8100be0:	3302      	adds	r3, #2
 8100be2:	69ba      	ldr	r2, [r7, #24]
 8100be4:	f841 2023 	str.w	r2, [r1, r3, lsl #2]

        /* Clear Rising Falling edge configuration */
        temp = EXTI->RTSR1;
 8100be8:	f04f 43b0 	mov.w	r3, #1476395008	@ 0x58000000
 8100bec:	681b      	ldr	r3, [r3, #0]
 8100bee:	61bb      	str	r3, [r7, #24]
        temp &= ~(iocurrent);
 8100bf0:	693b      	ldr	r3, [r7, #16]
 8100bf2:	43db      	mvns	r3, r3
 8100bf4:	69ba      	ldr	r2, [r7, #24]
 8100bf6:	4013      	ands	r3, r2
 8100bf8:	61bb      	str	r3, [r7, #24]
        if ((GPIO_Init->Mode & TRIGGER_RISING) != 0x00U)
 8100bfa:	683b      	ldr	r3, [r7, #0]
 8100bfc:	685b      	ldr	r3, [r3, #4]
 8100bfe:	f403 1380 	and.w	r3, r3, #1048576	@ 0x100000
 8100c02:	2b00      	cmp	r3, #0
 8100c04:	d003      	beq.n	8100c0e <HAL_GPIO_Init+0x2ae>
        {
          temp |= iocurrent;
 8100c06:	69ba      	ldr	r2, [r7, #24]
 8100c08:	693b      	ldr	r3, [r7, #16]
 8100c0a:	4313      	orrs	r3, r2
 8100c0c:	61bb      	str	r3, [r7, #24]
        }
        EXTI->RTSR1 = temp;
 8100c0e:	f04f 42b0 	mov.w	r2, #1476395008	@ 0x58000000
 8100c12:	69bb      	ldr	r3, [r7, #24]
 8100c14:	6013      	str	r3, [r2, #0]

        temp = EXTI->FTSR1;
 8100c16:	f04f 43b0 	mov.w	r3, #1476395008	@ 0x58000000
 8100c1a:	685b      	ldr	r3, [r3, #4]
 8100c1c:	61bb      	str	r3, [r7, #24]
        temp &= ~(iocurrent);
 8100c1e:	693b      	ldr	r3, [r7, #16]
 8100c20:	43db      	mvns	r3, r3
 8100c22:	69ba      	ldr	r2, [r7, #24]
 8100c24:	4013      	ands	r3, r2
 8100c26:	61bb      	str	r3, [r7, #24]
        if ((GPIO_Init->Mode & TRIGGER_FALLING) != 0x00U)
 8100c28:	683b      	ldr	r3, [r7, #0]
 8100c2a:	685b      	ldr	r3, [r3, #4]
 8100c2c:	f403 1300 	and.w	r3, r3, #2097152	@ 0x200000
 8100c30:	2b00      	cmp	r3, #0
 8100c32:	d003      	beq.n	8100c3c <HAL_GPIO_Init+0x2dc>
        {
          temp |= iocurrent;
 8100c34:	69ba      	ldr	r2, [r7, #24]
 8100c36:	693b      	ldr	r3, [r7, #16]
 8100c38:	4313      	orrs	r3, r2
 8100c3a:	61bb      	str	r3, [r7, #24]
        }
        EXTI->FTSR1 = temp;
 8100c3c:	f04f 42b0 	mov.w	r2, #1476395008	@ 0x58000000
 8100c40:	69bb      	ldr	r3, [r7, #24]
 8100c42:	6053      	str	r3, [r2, #4]

        temp = EXTI_CurrentCPU->EMR1;
 8100c44:	697b      	ldr	r3, [r7, #20]
 8100c46:	685b      	ldr	r3, [r3, #4]
 8100c48:	61bb      	str	r3, [r7, #24]
        temp &= ~(iocurrent);
 8100c4a:	693b      	ldr	r3, [r7, #16]
 8100c4c:	43db      	mvns	r3, r3
 8100c4e:	69ba      	ldr	r2, [r7, #24]
 8100c50:	4013      	ands	r3, r2
 8100c52:	61bb      	str	r3, [r7, #24]
        if ((GPIO_Init->Mode & EXTI_EVT) != 0x00U)
 8100c54:	683b      	ldr	r3, [r7, #0]
 8100c56:	685b      	ldr	r3, [r3, #4]
 8100c58:	f403 3300 	and.w	r3, r3, #131072	@ 0x20000
 8100c5c:	2b00      	cmp	r3, #0
 8100c5e:	d003      	beq.n	8100c68 <HAL_GPIO_Init+0x308>
        {
          temp |= iocurrent;
 8100c60:	69ba      	ldr	r2, [r7, #24]
 8100c62:	693b      	ldr	r3, [r7, #16]
 8100c64:	4313      	orrs	r3, r2
 8100c66:	61bb      	str	r3, [r7, #24]
        }
        EXTI_CurrentCPU->EMR1 = temp;
 8100c68:	697b      	ldr	r3, [r7, #20]
 8100c6a:	69ba      	ldr	r2, [r7, #24]
 8100c6c:	605a      	str	r2, [r3, #4]

        /* Clear EXTI line configuration */
        temp = EXTI_CurrentCPU->IMR1;
 8100c6e:	697b      	ldr	r3, [r7, #20]
 8100c70:	681b      	ldr	r3, [r3, #0]
 8100c72:	61bb      	str	r3, [r7, #24]
        temp &= ~(iocurrent);
 8100c74:	693b      	ldr	r3, [r7, #16]
 8100c76:	43db      	mvns	r3, r3
 8100c78:	69ba      	ldr	r2, [r7, #24]
 8100c7a:	4013      	ands	r3, r2
 8100c7c:	61bb      	str	r3, [r7, #24]
        if ((GPIO_Init->Mode & EXTI_IT) != 0x00U)
 8100c7e:	683b      	ldr	r3, [r7, #0]
 8100c80:	685b      	ldr	r3, [r3, #4]
 8100c82:	f403 3380 	and.w	r3, r3, #65536	@ 0x10000
 8100c86:	2b00      	cmp	r3, #0
 8100c88:	d003      	beq.n	8100c92 <HAL_GPIO_Init+0x332>
        {
          temp |= iocurrent;
 8100c8a:	69ba      	ldr	r2, [r7, #24]
 8100c8c:	693b      	ldr	r3, [r7, #16]
 8100c8e:	4313      	orrs	r3, r2
 8100c90:	61bb      	str	r3, [r7, #24]
        }
        EXTI_CurrentCPU->IMR1 = temp;
 8100c92:	697b      	ldr	r3, [r7, #20]
 8100c94:	69ba      	ldr	r2, [r7, #24]
 8100c96:	601a      	str	r2, [r3, #0]
      }
    }

    position++;
 8100c98:	69fb      	ldr	r3, [r7, #28]
 8100c9a:	3301      	adds	r3, #1
 8100c9c:	61fb      	str	r3, [r7, #28]
  while (((GPIO_Init->Pin) >> position) != 0x00U)
 8100c9e:	683b      	ldr	r3, [r7, #0]
 8100ca0:	681a      	ldr	r2, [r3, #0]
 8100ca2:	69fb      	ldr	r3, [r7, #28]
 8100ca4:	fa22 f303 	lsr.w	r3, r2, r3
 8100ca8:	2b00      	cmp	r3, #0
 8100caa:	f47f ae63 	bne.w	8100974 <HAL_GPIO_Init+0x14>
  }
}
 8100cae:	bf00      	nop
 8100cb0:	bf00      	nop
 8100cb2:	3724      	adds	r7, #36	@ 0x24
 8100cb4:	46bd      	mov	sp, r7
 8100cb6:	f85d 7b04 	ldr.w	r7, [sp], #4
 8100cba:	4770      	bx	lr
 8100cbc:	58000400 	.word	0x58000400

08100cc0 <HAL_GPIO_WritePin>:
  *            @arg GPIO_PIN_RESET: to clear the port pin
  *            @arg GPIO_PIN_SET: to set the port pin
  * @retval None
  */
void HAL_GPIO_WritePin(GPIO_TypeDef *GPIOx, uint16_t GPIO_Pin, GPIO_PinState PinState)
{
 8100cc0:	b480      	push	{r7}
 8100cc2:	b083      	sub	sp, #12
 8100cc4:	af00      	add	r7, sp, #0
 8100cc6:	6078      	str	r0, [r7, #4]
 8100cc8:	460b      	mov	r3, r1
 8100cca:	807b      	strh	r3, [r7, #2]
 8100ccc:	4613      	mov	r3, r2
 8100cce:	707b      	strb	r3, [r7, #1]
  /* Check the parameters */
  assert_param(IS_GPIO_PIN(GPIO_Pin));
  assert_param(IS_GPIO_PIN_ACTION(PinState));

  if (PinState != GPIO_PIN_RESET)
 8100cd0:	787b      	ldrb	r3, [r7, #1]
 8100cd2:	2b00      	cmp	r3, #0
 8100cd4:	d003      	beq.n	8100cde <HAL_GPIO_WritePin+0x1e>
  {
    GPIOx->BSRR = GPIO_Pin;
 8100cd6:	887a      	ldrh	r2, [r7, #2]
 8100cd8:	687b      	ldr	r3, [r7, #4]
 8100cda:	619a      	str	r2, [r3, #24]
  }
  else
  {
    GPIOx->BSRR = (uint32_t)GPIO_Pin << GPIO_NUMBER;
  }
}
 8100cdc:	e003      	b.n	8100ce6 <HAL_GPIO_WritePin+0x26>
    GPIOx->BSRR = (uint32_t)GPIO_Pin << GPIO_NUMBER;
 8100cde:	887b      	ldrh	r3, [r7, #2]
 8100ce0:	041a      	lsls	r2, r3, #16
 8100ce2:	687b      	ldr	r3, [r7, #4]
 8100ce4:	619a      	str	r2, [r3, #24]
}
 8100ce6:	bf00      	nop
 8100ce8:	370c      	adds	r7, #12
 8100cea:	46bd      	mov	sp, r7
 8100cec:	f85d 7b04 	ldr.w	r7, [sp], #4
 8100cf0:	4770      	bx	lr

08100cf2 <HAL_GPIO_TogglePin>:
  * @param  GPIOx: Where x can be (A..K) to select the GPIO peripheral.
  * @param  GPIO_Pin: Specifies the pins to be toggled.
  * @retval None
  */
void HAL_GPIO_TogglePin(GPIO_TypeDef *GPIOx, uint16_t GPIO_Pin)
{
 8100cf2:	b480      	push	{r7}
 8100cf4:	b085      	sub	sp, #20
 8100cf6:	af00      	add	r7, sp, #0
 8100cf8:	6078      	str	r0, [r7, #4]
 8100cfa:	460b      	mov	r3, r1
 8100cfc:	807b      	strh	r3, [r7, #2]

  /* Check the parameters */
  assert_param(IS_GPIO_PIN(GPIO_Pin));

  /* get current Output Data Register value */
  odr = GPIOx->ODR;
 8100cfe:	687b      	ldr	r3, [r7, #4]
 8100d00:	695b      	ldr	r3, [r3, #20]
 8100d02:	60fb      	str	r3, [r7, #12]

  /* Set selected pins that were at low level, and reset ones that were high */
  GPIOx->BSRR = ((odr & GPIO_Pin) << GPIO_NUMBER) | (~odr & GPIO_Pin);
 8100d04:	887a      	ldrh	r2, [r7, #2]
 8100d06:	68fb      	ldr	r3, [r7, #12]
 8100d08:	4013      	ands	r3, r2
 8100d0a:	041a      	lsls	r2, r3, #16
 8100d0c:	68fb      	ldr	r3, [r7, #12]
 8100d0e:	43d9      	mvns	r1, r3
 8100d10:	887b      	ldrh	r3, [r7, #2]
 8100d12:	400b      	ands	r3, r1
 8100d14:	431a      	orrs	r2, r3
 8100d16:	687b      	ldr	r3, [r7, #4]
 8100d18:	619a      	str	r2, [r3, #24]
}
 8100d1a:	bf00      	nop
 8100d1c:	3714      	adds	r7, #20
 8100d1e:	46bd      	mov	sp, r7
 8100d20:	f85d 7b04 	ldr.w	r7, [sp], #4
 8100d24:	4770      	bx	lr
	...

08100d28 <HAL_HSEM_ActivateNotification>:
  * @brief  Activate Semaphore release Notification for a given Semaphores Mask .
  * @param  SemMask: Mask of Released semaphores
  * @retval Semaphore Key
  */
void HAL_HSEM_ActivateNotification(uint32_t SemMask)
{
 8100d28:	b480      	push	{r7}
 8100d2a:	b083      	sub	sp, #12
 8100d2c:	af00      	add	r7, sp, #0
 8100d2e:	6078      	str	r0, [r7, #4]
  {
    /*Use interrupt line 1 for CPU2 Master*/
    HSEM->C2IER |= SemMask;
  }
#else
  HSEM_COMMON->IER |= SemMask;
 8100d30:	4b05      	ldr	r3, [pc, #20]	@ (8100d48 <HAL_HSEM_ActivateNotification+0x20>)
 8100d32:	681a      	ldr	r2, [r3, #0]
 8100d34:	4904      	ldr	r1, [pc, #16]	@ (8100d48 <HAL_HSEM_ActivateNotification+0x20>)
 8100d36:	687b      	ldr	r3, [r7, #4]
 8100d38:	4313      	orrs	r3, r2
 8100d3a:	600b      	str	r3, [r1, #0]
#endif
}
 8100d3c:	bf00      	nop
 8100d3e:	370c      	adds	r7, #12
 8100d40:	46bd      	mov	sp, r7
 8100d42:	f85d 7b04 	ldr.w	r7, [sp], #4
 8100d46:	4770      	bx	lr
 8100d48:	58026510 	.word	0x58026510

08100d4c <HAL_PWREx_EnterSTOPMode>:
  *            @arg PWR_D2_DOMAIN : Enter D2 Domain to DSTOP mode.
  *            @arg PWR_D3_DOMAIN : Enter D3/SRD Domain to DSTOP mode.
  * @retval None.
  */
void HAL_PWREx_EnterSTOPMode (uint32_t Regulator, uint8_t STOPEntry, uint32_t Domain)
{
 8100d4c:	b580      	push	{r7, lr}
 8100d4e:	b084      	sub	sp, #16
 8100d50:	af00      	add	r7, sp, #0
 8100d52:	60f8      	str	r0, [r7, #12]
 8100d54:	460b      	mov	r3, r1
 8100d56:	607a      	str	r2, [r7, #4]
 8100d58:	72fb      	strb	r3, [r7, #11]
  assert_param (IS_PWR_REGULATOR (Regulator));
  assert_param (IS_PWR_STOP_ENTRY (STOPEntry));
  assert_param (IS_PWR_DOMAIN (Domain));

  /* Select the regulator state in Stop mode */
  MODIFY_REG (PWR->CR1, PWR_CR1_LPDS, Regulator);
 8100d5a:	4b37      	ldr	r3, [pc, #220]	@ (8100e38 <HAL_PWREx_EnterSTOPMode+0xec>)
 8100d5c:	681b      	ldr	r3, [r3, #0]
 8100d5e:	f023 0201 	bic.w	r2, r3, #1
 8100d62:	4935      	ldr	r1, [pc, #212]	@ (8100e38 <HAL_PWREx_EnterSTOPMode+0xec>)
 8100d64:	68fb      	ldr	r3, [r7, #12]
 8100d66:	4313      	orrs	r3, r2
 8100d68:	600b      	str	r3, [r1, #0]

  /* Select the domain Power Down DeepSleep */
  if (Domain == PWR_D1_DOMAIN)
 8100d6a:	687b      	ldr	r3, [r7, #4]
 8100d6c:	2b00      	cmp	r3, #0
 8100d6e:	d123      	bne.n	8100db8 <HAL_PWREx_EnterSTOPMode+0x6c>
  {
#if defined (DUAL_CORE)
    /* Check current core */
    if (HAL_GetCurrentCPUID () != CM7_CPUID)
 8100d70:	f7ff fde2 	bl	8100938 <HAL_GetCurrentCPUID>
 8100d74:	4603      	mov	r3, r0
 8100d76:	2b03      	cmp	r3, #3
 8100d78:	d158      	bne.n	8100e2c <HAL_PWREx_EnterSTOPMode+0xe0>
      return;
    }
#endif /* defined (DUAL_CORE) */

    /* Keep DSTOP mode when D1/CD domain enters Deepsleep */
    CLEAR_BIT (PWR->CPUCR, PWR_CPUCR_PDDS_D1);
 8100d7a:	4b2f      	ldr	r3, [pc, #188]	@ (8100e38 <HAL_PWREx_EnterSTOPMode+0xec>)
 8100d7c:	691b      	ldr	r3, [r3, #16]
 8100d7e:	4a2e      	ldr	r2, [pc, #184]	@ (8100e38 <HAL_PWREx_EnterSTOPMode+0xec>)
 8100d80:	f023 0301 	bic.w	r3, r3, #1
 8100d84:	6113      	str	r3, [r2, #16]

    /* Set SLEEPDEEP bit of Cortex System Control Register */
    SET_BIT (SCB->SCR, SCB_SCR_SLEEPDEEP_Msk);
 8100d86:	4b2d      	ldr	r3, [pc, #180]	@ (8100e3c <HAL_PWREx_EnterSTOPMode+0xf0>)
 8100d88:	691b      	ldr	r3, [r3, #16]
 8100d8a:	4a2c      	ldr	r2, [pc, #176]	@ (8100e3c <HAL_PWREx_EnterSTOPMode+0xf0>)
 8100d8c:	f043 0304 	orr.w	r3, r3, #4
 8100d90:	6113      	str	r3, [r2, #16]
  \details Acts as a special kind of Data Memory Barrier.
           It completes when all explicit memory accesses before this instruction complete.
 */
__STATIC_FORCEINLINE void __DSB(void)
{
  __ASM volatile ("dsb 0xF":::"memory");
 8100d92:	f3bf 8f4f 	dsb	sy
}
 8100d96:	bf00      	nop
  __ASM volatile ("isb 0xF":::"memory");
 8100d98:	f3bf 8f6f 	isb	sy
}
 8100d9c:	bf00      	nop
    /* Ensure that all instructions are done before entering STOP mode */
    __DSB ();
    __ISB ();

    /* Select Stop mode entry */
    if (STOPEntry == PWR_STOPENTRY_WFI)
 8100d9e:	7afb      	ldrb	r3, [r7, #11]
 8100da0:	2b01      	cmp	r3, #1
 8100da2:	d101      	bne.n	8100da8 <HAL_PWREx_EnterSTOPMode+0x5c>
    {
      /* Request Wait For Interrupt */
      __WFI ();
 8100da4:	bf30      	wfi
 8100da6:	e000      	b.n	8100daa <HAL_PWREx_EnterSTOPMode+0x5e>
    }
    else
    {
      /* Request Wait For Event */
      __WFE ();
 8100da8:	bf20      	wfe
    }

    /* Clear SLEEPDEEP bit of Cortex-Mx in the System Control Register */
    CLEAR_BIT (SCB->SCR, SCB_SCR_SLEEPDEEP_Msk);
 8100daa:	4b24      	ldr	r3, [pc, #144]	@ (8100e3c <HAL_PWREx_EnterSTOPMode+0xf0>)
 8100dac:	691b      	ldr	r3, [r3, #16]
 8100dae:	4a23      	ldr	r2, [pc, #140]	@ (8100e3c <HAL_PWREx_EnterSTOPMode+0xf0>)
 8100db0:	f023 0304 	bic.w	r3, r3, #4
 8100db4:	6113      	str	r3, [r2, #16]
 8100db6:	e03c      	b.n	8100e32 <HAL_PWREx_EnterSTOPMode+0xe6>
  }
#if defined (PWR_CPUCR_PDDS_D2)
  else if (Domain == PWR_D2_DOMAIN)
 8100db8:	687b      	ldr	r3, [r7, #4]
 8100dba:	2b01      	cmp	r3, #1
 8100dbc:	d123      	bne.n	8100e06 <HAL_PWREx_EnterSTOPMode+0xba>
  {
#if defined (DUAL_CORE)
    /* Check current core */
    if (HAL_GetCurrentCPUID () != CM4_CPUID)
 8100dbe:	f7ff fdbb 	bl	8100938 <HAL_GetCurrentCPUID>
 8100dc2:	4603      	mov	r3, r0
 8100dc4:	2b01      	cmp	r3, #1
 8100dc6:	d133      	bne.n	8100e30 <HAL_PWREx_EnterSTOPMode+0xe4>
      */
      return;
    }

    /* Keep DSTOP mode when D2 domain enters Deepsleep */
    CLEAR_BIT (PWR->CPU2CR, PWR_CPU2CR_PDDS_D2);
 8100dc8:	4b1b      	ldr	r3, [pc, #108]	@ (8100e38 <HAL_PWREx_EnterSTOPMode+0xec>)
 8100dca:	695b      	ldr	r3, [r3, #20]
 8100dcc:	4a1a      	ldr	r2, [pc, #104]	@ (8100e38 <HAL_PWREx_EnterSTOPMode+0xec>)
 8100dce:	f023 0302 	bic.w	r3, r3, #2
 8100dd2:	6153      	str	r3, [r2, #20]

    /* Set SLEEPDEEP bit of Cortex System Control Register */
    SET_BIT (SCB->SCR, SCB_SCR_SLEEPDEEP_Msk);
 8100dd4:	4b19      	ldr	r3, [pc, #100]	@ (8100e3c <HAL_PWREx_EnterSTOPMode+0xf0>)
 8100dd6:	691b      	ldr	r3, [r3, #16]
 8100dd8:	4a18      	ldr	r2, [pc, #96]	@ (8100e3c <HAL_PWREx_EnterSTOPMode+0xf0>)
 8100dda:	f043 0304 	orr.w	r3, r3, #4
 8100dde:	6113      	str	r3, [r2, #16]
  __ASM volatile ("dsb 0xF":::"memory");
 8100de0:	f3bf 8f4f 	dsb	sy
}
 8100de4:	bf00      	nop
  __ASM volatile ("isb 0xF":::"memory");
 8100de6:	f3bf 8f6f 	isb	sy
}
 8100dea:	bf00      	nop
    /* Ensure that all instructions are done before entering STOP mode */
    __DSB ();
    __ISB ();

    /* Select Stop mode entry */
    if (STOPEntry == PWR_STOPENTRY_WFI)
 8100dec:	7afb      	ldrb	r3, [r7, #11]
 8100dee:	2b01      	cmp	r3, #1
 8100df0:	d101      	bne.n	8100df6 <HAL_PWREx_EnterSTOPMode+0xaa>
    {
      /* Request Wait For Interrupt */
      __WFI ();
 8100df2:	bf30      	wfi
 8100df4:	e000      	b.n	8100df8 <HAL_PWREx_EnterSTOPMode+0xac>
    }
    else
    {
      /* Request Wait For Event */
      __WFE ();
 8100df6:	bf20      	wfe
    }

    /* Clear SLEEPDEEP bit of Cortex-Mx in the System Control Register */
    CLEAR_BIT (SCB->SCR, SCB_SCR_SLEEPDEEP_Msk);
 8100df8:	4b10      	ldr	r3, [pc, #64]	@ (8100e3c <HAL_PWREx_EnterSTOPMode+0xf0>)
 8100dfa:	691b      	ldr	r3, [r3, #16]
 8100dfc:	4a0f      	ldr	r2, [pc, #60]	@ (8100e3c <HAL_PWREx_EnterSTOPMode+0xf0>)
 8100dfe:	f023 0304 	bic.w	r3, r3, #4
 8100e02:	6113      	str	r3, [r2, #16]
 8100e04:	e015      	b.n	8100e32 <HAL_PWREx_EnterSTOPMode+0xe6>
#endif /* defined (PWR_CPUCR_PDDS_D2) */
  else
  {
#if defined (DUAL_CORE)
    /* Check current core */
    if (HAL_GetCurrentCPUID () == CM7_CPUID)
 8100e06:	f7ff fd97 	bl	8100938 <HAL_GetCurrentCPUID>
 8100e0a:	4603      	mov	r3, r0
 8100e0c:	2b03      	cmp	r3, #3
 8100e0e:	d106      	bne.n	8100e1e <HAL_PWREx_EnterSTOPMode+0xd2>
    {
      /* Keep DSTOP mode when D3 domain enters Deepsleep */
      CLEAR_BIT (PWR->CPUCR, PWR_CPUCR_PDDS_D3);
 8100e10:	4b09      	ldr	r3, [pc, #36]	@ (8100e38 <HAL_PWREx_EnterSTOPMode+0xec>)
 8100e12:	691b      	ldr	r3, [r3, #16]
 8100e14:	4a08      	ldr	r2, [pc, #32]	@ (8100e38 <HAL_PWREx_EnterSTOPMode+0xec>)
 8100e16:	f023 0304 	bic.w	r3, r3, #4
 8100e1a:	6113      	str	r3, [r2, #16]
 8100e1c:	e009      	b.n	8100e32 <HAL_PWREx_EnterSTOPMode+0xe6>
    }
    else
    {
      /* Keep DSTOP mode when D3 domain enters Deepsleep */
      CLEAR_BIT (PWR->CPU2CR, PWR_CPU2CR_PDDS_D3);
 8100e1e:	4b06      	ldr	r3, [pc, #24]	@ (8100e38 <HAL_PWREx_EnterSTOPMode+0xec>)
 8100e20:	695b      	ldr	r3, [r3, #20]
 8100e22:	4a05      	ldr	r2, [pc, #20]	@ (8100e38 <HAL_PWREx_EnterSTOPMode+0xec>)
 8100e24:	f023 0304 	bic.w	r3, r3, #4
 8100e28:	6153      	str	r3, [r2, #20]
 8100e2a:	e002      	b.n	8100e32 <HAL_PWREx_EnterSTOPMode+0xe6>
      return;
 8100e2c:	bf00      	nop
 8100e2e:	e000      	b.n	8100e32 <HAL_PWREx_EnterSTOPMode+0xe6>
      return;
 8100e30:	bf00      	nop
#else
    /* Keep DSTOP mode when D3/SRD domain enters Deepsleep */
    CLEAR_BIT (PWR->CPUCR, PWR_CPUCR_PDDS_D3);
#endif  /* defined (DUAL_CORE) */
  }
}
 8100e32:	3710      	adds	r7, #16
 8100e34:	46bd      	mov	sp, r7
 8100e36:	bd80      	pop	{r7, pc}
 8100e38:	58024800 	.word	0x58024800
 8100e3c:	e000ed00 	.word	0xe000ed00

08100e40 <HAL_PWREx_ClearPendingEvent>:
  *         enter low power mode using Wait For Event request.
  * @note   Cortex-M7 must be in CRUN mode when calling this API by Cortex-M4.
  * @retval None.
  */
void HAL_PWREx_ClearPendingEvent (void)
{
 8100e40:	b580      	push	{r7, lr}
 8100e42:	af00      	add	r7, sp, #0
#if defined (DUAL_CORE)
  /* Check the current Core */
  if (HAL_GetCurrentCPUID () == CM7_CPUID)
 8100e44:	f7ff fd78 	bl	8100938 <HAL_GetCurrentCPUID>
 8100e48:	4603      	mov	r3, r0
 8100e4a:	2b03      	cmp	r3, #3
 8100e4c:	d101      	bne.n	8100e52 <HAL_PWREx_ClearPendingEvent+0x12>
  {
    __WFE ();
 8100e4e:	bf20      	wfe
    __WFE ();
  }
#else
  __WFE ();
#endif /* defined (DUAL_CORE) */
}
 8100e50:	e001      	b.n	8100e56 <HAL_PWREx_ClearPendingEvent+0x16>
    __SEV ();
 8100e52:	bf40      	sev
    __WFE ();
 8100e54:	bf20      	wfe
}
 8100e56:	bf00      	nop
 8100e58:	bd80      	pop	{r7, pc}
	...

08100e5c <HAL_RCC_GetSysClockFreq>:
  *
  *
  * @retval SYSCLK frequency
  */
uint32_t HAL_RCC_GetSysClockFreq(void)
{
 8100e5c:	b480      	push	{r7}
 8100e5e:	b089      	sub	sp, #36	@ 0x24
 8100e60:	af00      	add	r7, sp, #0
  float_t fracn1, pllvco;
  uint32_t sysclockfreq;

  /* Get SYSCLK source -------------------------------------------------------*/

  switch (RCC->CFGR & RCC_CFGR_SWS)
 8100e62:	4bb3      	ldr	r3, [pc, #716]	@ (8101130 <HAL_RCC_GetSysClockFreq+0x2d4>)
 8100e64:	691b      	ldr	r3, [r3, #16]
 8100e66:	f003 0338 	and.w	r3, r3, #56	@ 0x38
 8100e6a:	2b18      	cmp	r3, #24
 8100e6c:	f200 8155 	bhi.w	810111a <HAL_RCC_GetSysClockFreq+0x2be>
 8100e70:	a201      	add	r2, pc, #4	@ (adr r2, 8100e78 <HAL_RCC_GetSysClockFreq+0x1c>)
 8100e72:	f852 f023 	ldr.w	pc, [r2, r3, lsl #2]
 8100e76:	bf00      	nop
 8100e78:	08100edd 	.word	0x08100edd
 8100e7c:	0810111b 	.word	0x0810111b
 8100e80:	0810111b 	.word	0x0810111b
 8100e84:	0810111b 	.word	0x0810111b
 8100e88:	0810111b 	.word	0x0810111b
 8100e8c:	0810111b 	.word	0x0810111b
 8100e90:	0810111b 	.word	0x0810111b
 8100e94:	0810111b 	.word	0x0810111b
 8100e98:	08100f03 	.word	0x08100f03
 8100e9c:	0810111b 	.word	0x0810111b
 8100ea0:	0810111b 	.word	0x0810111b
 8100ea4:	0810111b 	.word	0x0810111b
 8100ea8:	0810111b 	.word	0x0810111b
 8100eac:	0810111b 	.word	0x0810111b
 8100eb0:	0810111b 	.word	0x0810111b
 8100eb4:	0810111b 	.word	0x0810111b
 8100eb8:	08100f09 	.word	0x08100f09
 8100ebc:	0810111b 	.word	0x0810111b
 8100ec0:	0810111b 	.word	0x0810111b
 8100ec4:	0810111b 	.word	0x0810111b
 8100ec8:	0810111b 	.word	0x0810111b
 8100ecc:	0810111b 	.word	0x0810111b
 8100ed0:	0810111b 	.word	0x0810111b
 8100ed4:	0810111b 	.word	0x0810111b
 8100ed8:	08100f0f 	.word	0x08100f0f
  {
    case RCC_CFGR_SWS_HSI:  /* HSI used as system clock source */

      if (__HAL_RCC_GET_FLAG(RCC_FLAG_HSIDIV) != 0U)
 8100edc:	4b94      	ldr	r3, [pc, #592]	@ (8101130 <HAL_RCC_GetSysClockFreq+0x2d4>)
 8100ede:	681b      	ldr	r3, [r3, #0]
 8100ee0:	f003 0320 	and.w	r3, r3, #32
 8100ee4:	2b00      	cmp	r3, #0
 8100ee6:	d009      	beq.n	8100efc <HAL_RCC_GetSysClockFreq+0xa0>
      {
        sysclockfreq = (uint32_t)(HSI_VALUE >> (__HAL_RCC_GET_HSI_DIVIDER() >> 3));
 8100ee8:	4b91      	ldr	r3, [pc, #580]	@ (8101130 <HAL_RCC_GetSysClockFreq+0x2d4>)
 8100eea:	681b      	ldr	r3, [r3, #0]
 8100eec:	08db      	lsrs	r3, r3, #3
 8100eee:	f003 0303 	and.w	r3, r3, #3
 8100ef2:	4a90      	ldr	r2, [pc, #576]	@ (8101134 <HAL_RCC_GetSysClockFreq+0x2d8>)
 8100ef4:	fa22 f303 	lsr.w	r3, r2, r3
 8100ef8:	61bb      	str	r3, [r7, #24]
      else
      {
        sysclockfreq = (uint32_t) HSI_VALUE;
      }

      break;
 8100efa:	e111      	b.n	8101120 <HAL_RCC_GetSysClockFreq+0x2c4>
        sysclockfreq = (uint32_t) HSI_VALUE;
 8100efc:	4b8d      	ldr	r3, [pc, #564]	@ (8101134 <HAL_RCC_GetSysClockFreq+0x2d8>)
 8100efe:	61bb      	str	r3, [r7, #24]
      break;
 8100f00:	e10e      	b.n	8101120 <HAL_RCC_GetSysClockFreq+0x2c4>

    case RCC_CFGR_SWS_CSI:  /* CSI used as system clock  source */
      sysclockfreq = CSI_VALUE;
 8100f02:	4b8d      	ldr	r3, [pc, #564]	@ (8101138 <HAL_RCC_GetSysClockFreq+0x2dc>)
 8100f04:	61bb      	str	r3, [r7, #24]
      break;
 8100f06:	e10b      	b.n	8101120 <HAL_RCC_GetSysClockFreq+0x2c4>

    case RCC_CFGR_SWS_HSE:  /* HSE used as system clock  source */
      sysclockfreq = HSE_VALUE;
 8100f08:	4b8c      	ldr	r3, [pc, #560]	@ (810113c <HAL_RCC_GetSysClockFreq+0x2e0>)
 8100f0a:	61bb      	str	r3, [r7, #24]
      break;
 8100f0c:	e108      	b.n	8101120 <HAL_RCC_GetSysClockFreq+0x2c4>
    case RCC_CFGR_SWS_PLL1:  /* PLL1 used as system clock  source */

      /* PLL_VCO = (HSE_VALUE or HSI_VALUE or CSI_VALUE/ PLLM) * PLLN
      SYSCLK = PLL_VCO / PLLR
      */
      pllsource = (RCC->PLLCKSELR & RCC_PLLCKSELR_PLLSRC);
 8100f0e:	4b88      	ldr	r3, [pc, #544]	@ (8101130 <HAL_RCC_GetSysClockFreq+0x2d4>)
 8100f10:	6a9b      	ldr	r3, [r3, #40]	@ 0x28
 8100f12:	f003 0303 	and.w	r3, r3, #3
 8100f16:	617b      	str	r3, [r7, #20]
      pllm = ((RCC->PLLCKSELR & RCC_PLLCKSELR_DIVM1) >> 4)  ;
 8100f18:	4b85      	ldr	r3, [pc, #532]	@ (8101130 <HAL_RCC_GetSysClockFreq+0x2d4>)
 8100f1a:	6a9b      	ldr	r3, [r3, #40]	@ 0x28
 8100f1c:	091b      	lsrs	r3, r3, #4
 8100f1e:	f003 033f 	and.w	r3, r3, #63	@ 0x3f
 8100f22:	613b      	str	r3, [r7, #16]
      pllfracen = ((RCC-> PLLCFGR & RCC_PLLCFGR_PLL1FRACEN) >> RCC_PLLCFGR_PLL1FRACEN_Pos);
 8100f24:	4b82      	ldr	r3, [pc, #520]	@ (8101130 <HAL_RCC_GetSysClockFreq+0x2d4>)
 8100f26:	6adb      	ldr	r3, [r3, #44]	@ 0x2c
 8100f28:	f003 0301 	and.w	r3, r3, #1
 8100f2c:	60fb      	str	r3, [r7, #12]
      fracn1 = (float_t)(uint32_t)(pllfracen * ((RCC->PLL1FRACR & RCC_PLL1FRACR_FRACN1) >> 3));
 8100f2e:	4b80      	ldr	r3, [pc, #512]	@ (8101130 <HAL_RCC_GetSysClockFreq+0x2d4>)
 8100f30:	6b5b      	ldr	r3, [r3, #52]	@ 0x34
 8100f32:	08db      	lsrs	r3, r3, #3
 8100f34:	f3c3 030c 	ubfx	r3, r3, #0, #13
 8100f38:	68fa      	ldr	r2, [r7, #12]
 8100f3a:	fb02 f303 	mul.w	r3, r2, r3
 8100f3e:	ee07 3a90 	vmov	s15, r3
 8100f42:	eef8 7a67 	vcvt.f32.u32	s15, s15
 8100f46:	edc7 7a02 	vstr	s15, [r7, #8]

      if (pllm != 0U)
 8100f4a:	693b      	ldr	r3, [r7, #16]
 8100f4c:	2b00      	cmp	r3, #0
 8100f4e:	f000 80e1 	beq.w	8101114 <HAL_RCC_GetSysClockFreq+0x2b8>
 8100f52:	697b      	ldr	r3, [r7, #20]
 8100f54:	2b02      	cmp	r3, #2
 8100f56:	f000 8083 	beq.w	8101060 <HAL_RCC_GetSysClockFreq+0x204>
 8100f5a:	697b      	ldr	r3, [r7, #20]
 8100f5c:	2b02      	cmp	r3, #2
 8100f5e:	f200 80a1 	bhi.w	81010a4 <HAL_RCC_GetSysClockFreq+0x248>
 8100f62:	697b      	ldr	r3, [r7, #20]
 8100f64:	2b00      	cmp	r3, #0
 8100f66:	d003      	beq.n	8100f70 <HAL_RCC_GetSysClockFreq+0x114>
 8100f68:	697b      	ldr	r3, [r7, #20]
 8100f6a:	2b01      	cmp	r3, #1
 8100f6c:	d056      	beq.n	810101c <HAL_RCC_GetSysClockFreq+0x1c0>
 8100f6e:	e099      	b.n	81010a4 <HAL_RCC_GetSysClockFreq+0x248>
      {
        switch (pllsource)
        {
          case RCC_PLLSOURCE_HSI:  /* HSI used as PLL clock source */

            if (__HAL_RCC_GET_FLAG(RCC_FLAG_HSIDIV) != 0U)
 8100f70:	4b6f      	ldr	r3, [pc, #444]	@ (8101130 <HAL_RCC_GetSysClockFreq+0x2d4>)
 8100f72:	681b      	ldr	r3, [r3, #0]
 8100f74:	f003 0320 	and.w	r3, r3, #32
 8100f78:	2b00      	cmp	r3, #0
 8100f7a:	d02d      	beq.n	8100fd8 <HAL_RCC_GetSysClockFreq+0x17c>
            {
              hsivalue = (HSI_VALUE >> (__HAL_RCC_GET_HSI_DIVIDER() >> 3));
 8100f7c:	4b6c      	ldr	r3, [pc, #432]	@ (8101130 <HAL_RCC_GetSysClockFreq+0x2d4>)
 8100f7e:	681b      	ldr	r3, [r3, #0]
 8100f80:	08db      	lsrs	r3, r3, #3
 8100f82:	f003 0303 	and.w	r3, r3, #3
 8100f86:	4a6b      	ldr	r2, [pc, #428]	@ (8101134 <HAL_RCC_GetSysClockFreq+0x2d8>)
 8100f88:	fa22 f303 	lsr.w	r3, r2, r3
 8100f8c:	607b      	str	r3, [r7, #4]
              pllvco = ((float_t)hsivalue / (float_t)pllm) * ((float_t)(uint32_t)(RCC->PLL1DIVR & RCC_PLL1DIVR_N1) + (fracn1 / (float_t)0x2000) + (float_t)1);
 8100f8e:	687b      	ldr	r3, [r7, #4]
 8100f90:	ee07 3a90 	vmov	s15, r3
 8100f94:	eef8 6a67 	vcvt.f32.u32	s13, s15
 8100f98:	693b      	ldr	r3, [r7, #16]
 8100f9a:	ee07 3a90 	vmov	s15, r3
 8100f9e:	eef8 7a67 	vcvt.f32.u32	s15, s15
 8100fa2:	ee86 7aa7 	vdiv.f32	s14, s13, s15
 8100fa6:	4b62      	ldr	r3, [pc, #392]	@ (8101130 <HAL_RCC_GetSysClockFreq+0x2d4>)
 8100fa8:	6b1b      	ldr	r3, [r3, #48]	@ 0x30
 8100faa:	f3c3 0308 	ubfx	r3, r3, #0, #9
 8100fae:	ee07 3a90 	vmov	s15, r3
 8100fb2:	eef8 6a67 	vcvt.f32.u32	s13, s15
 8100fb6:	ed97 6a02 	vldr	s12, [r7, #8]
 8100fba:	eddf 5a61 	vldr	s11, [pc, #388]	@ 8101140 <HAL_RCC_GetSysClockFreq+0x2e4>
 8100fbe:	eec6 7a25 	vdiv.f32	s15, s12, s11
 8100fc2:	ee76 7aa7 	vadd.f32	s15, s13, s15
 8100fc6:	eef7 6a00 	vmov.f32	s13, #112	@ 0x3f800000  1.0
 8100fca:	ee77 7aa6 	vadd.f32	s15, s15, s13
 8100fce:	ee67 7a27 	vmul.f32	s15, s14, s15
 8100fd2:	edc7 7a07 	vstr	s15, [r7, #28]
            }
            else
            {
              pllvco = ((float_t)HSI_VALUE / (float_t)pllm) * ((float_t)(uint32_t)(RCC->PLL1DIVR & RCC_PLL1DIVR_N1) + (fracn1 / (float_t)0x2000) + (float_t)1);
            }
            break;
 8100fd6:	e087      	b.n	81010e8 <HAL_RCC_GetSysClockFreq+0x28c>
              pllvco = ((float_t)HSI_VALUE / (float_t)pllm) * ((float_t)(uint32_t)(RCC->PLL1DIVR & RCC_PLL1DIVR_N1) + (fracn1 / (float_t)0x2000) + (float_t)1);
 8100fd8:	693b      	ldr	r3, [r7, #16]
 8100fda:	ee07 3a90 	vmov	s15, r3
 8100fde:	eef8 7a67 	vcvt.f32.u32	s15, s15
 8100fe2:	eddf 6a58 	vldr	s13, [pc, #352]	@ 8101144 <HAL_RCC_GetSysClockFreq+0x2e8>
 8100fe6:	ee86 7aa7 	vdiv.f32	s14, s13, s15
 8100fea:	4b51      	ldr	r3, [pc, #324]	@ (8101130 <HAL_RCC_GetSysClockFreq+0x2d4>)
 8100fec:	6b1b      	ldr	r3, [r3, #48]	@ 0x30
 8100fee:	f3c3 0308 	ubfx	r3, r3, #0, #9
 8100ff2:	ee07 3a90 	vmov	s15, r3
 8100ff6:	eef8 6a67 	vcvt.f32.u32	s13, s15
 8100ffa:	ed97 6a02 	vldr	s12, [r7, #8]
 8100ffe:	eddf 5a50 	vldr	s11, [pc, #320]	@ 8101140 <HAL_RCC_GetSysClockFreq+0x2e4>
 8101002:	eec6 7a25 	vdiv.f32	s15, s12, s11
 8101006:	ee76 7aa7 	vadd.f32	s15, s13, s15
 810100a:	eef7 6a00 	vmov.f32	s13, #112	@ 0x3f800000  1.0
 810100e:	ee77 7aa6 	vadd.f32	s15, s15, s13
 8101012:	ee67 7a27 	vmul.f32	s15, s14, s15
 8101016:	edc7 7a07 	vstr	s15, [r7, #28]
            break;
 810101a:	e065      	b.n	81010e8 <HAL_RCC_GetSysClockFreq+0x28c>

          case RCC_PLLSOURCE_CSI:  /* CSI used as PLL clock source */
            pllvco = ((float_t)CSI_VALUE / (float_t)pllm) * ((float_t)(uint32_t)(RCC->PLL1DIVR & RCC_PLL1DIVR_N1) + (fracn1 / (float_t)0x2000) + (float_t)1);
 810101c:	693b      	ldr	r3, [r7, #16]
 810101e:	ee07 3a90 	vmov	s15, r3
 8101022:	eef8 7a67 	vcvt.f32.u32	s15, s15
 8101026:	eddf 6a48 	vldr	s13, [pc, #288]	@ 8101148 <HAL_RCC_GetSysClockFreq+0x2ec>
 810102a:	ee86 7aa7 	vdiv.f32	s14, s13, s15
 810102e:	4b40      	ldr	r3, [pc, #256]	@ (8101130 <HAL_RCC_GetSysClockFreq+0x2d4>)
 8101030:	6b1b      	ldr	r3, [r3, #48]	@ 0x30
 8101032:	f3c3 0308 	ubfx	r3, r3, #0, #9
 8101036:	ee07 3a90 	vmov	s15, r3
 810103a:	eef8 6a67 	vcvt.f32.u32	s13, s15
 810103e:	ed97 6a02 	vldr	s12, [r7, #8]
 8101042:	eddf 5a3f 	vldr	s11, [pc, #252]	@ 8101140 <HAL_RCC_GetSysClockFreq+0x2e4>
 8101046:	eec6 7a25 	vdiv.f32	s15, s12, s11
 810104a:	ee76 7aa7 	vadd.f32	s15, s13, s15
 810104e:	eef7 6a00 	vmov.f32	s13, #112	@ 0x3f800000  1.0
 8101052:	ee77 7aa6 	vadd.f32	s15, s15, s13
 8101056:	ee67 7a27 	vmul.f32	s15, s14, s15
 810105a:	edc7 7a07 	vstr	s15, [r7, #28]
            break;
 810105e:	e043      	b.n	81010e8 <HAL_RCC_GetSysClockFreq+0x28c>

          case RCC_PLLSOURCE_HSE:  /* HSE used as PLL clock source */
            pllvco = ((float_t)HSE_VALUE / (float_t)pllm) * ((float_t)(uint32_t)(RCC->PLL1DIVR & RCC_PLL1DIVR_N1) + (fracn1 / (float_t)0x2000) + (float_t)1);
 8101060:	693b      	ldr	r3, [r7, #16]
 8101062:	ee07 3a90 	vmov	s15, r3
 8101066:	eef8 7a67 	vcvt.f32.u32	s15, s15
 810106a:	eddf 6a38 	vldr	s13, [pc, #224]	@ 810114c <HAL_RCC_GetSysClockFreq+0x2f0>
 810106e:	ee86 7aa7 	vdiv.f32	s14, s13, s15
 8101072:	4b2f      	ldr	r3, [pc, #188]	@ (8101130 <HAL_RCC_GetSysClockFreq+0x2d4>)
 8101074:	6b1b      	ldr	r3, [r3, #48]	@ 0x30
 8101076:	f3c3 0308 	ubfx	r3, r3, #0, #9
 810107a:	ee07 3a90 	vmov	s15, r3
 810107e:	eef8 6a67 	vcvt.f32.u32	s13, s15
 8101082:	ed97 6a02 	vldr	s12, [r7, #8]
 8101086:	eddf 5a2e 	vldr	s11, [pc, #184]	@ 8101140 <HAL_RCC_GetSysClockFreq+0x2e4>
 810108a:	eec6 7a25 	vdiv.f32	s15, s12, s11
 810108e:	ee76 7aa7 	vadd.f32	s15, s13, s15
 8101092:	eef7 6a00 	vmov.f32	s13, #112	@ 0x3f800000  1.0
 8101096:	ee77 7aa6 	vadd.f32	s15, s15, s13
 810109a:	ee67 7a27 	vmul.f32	s15, s14, s15
 810109e:	edc7 7a07 	vstr	s15, [r7, #28]
            break;
 81010a2:	e021      	b.n	81010e8 <HAL_RCC_GetSysClockFreq+0x28c>

          default:
            pllvco = ((float_t)CSI_VALUE / (float_t)pllm) * ((float_t)(uint32_t)(RCC->PLL1DIVR & RCC_PLL1DIVR_N1) + (fracn1 / (float_t)0x2000) + (float_t)1);
 81010a4:	693b      	ldr	r3, [r7, #16]
 81010a6:	ee07 3a90 	vmov	s15, r3
 81010aa:	eef8 7a67 	vcvt.f32.u32	s15, s15
 81010ae:	eddf 6a26 	vldr	s13, [pc, #152]	@ 8101148 <HAL_RCC_GetSysClockFreq+0x2ec>
 81010b2:	ee86 7aa7 	vdiv.f32	s14, s13, s15
 81010b6:	4b1e      	ldr	r3, [pc, #120]	@ (8101130 <HAL_RCC_GetSysClockFreq+0x2d4>)
 81010b8:	6b1b      	ldr	r3, [r3, #48]	@ 0x30
 81010ba:	f3c3 0308 	ubfx	r3, r3, #0, #9
 81010be:	ee07 3a90 	vmov	s15, r3
 81010c2:	eef8 6a67 	vcvt.f32.u32	s13, s15
 81010c6:	ed97 6a02 	vldr	s12, [r7, #8]
 81010ca:	eddf 5a1d 	vldr	s11, [pc, #116]	@ 8101140 <HAL_RCC_GetSysClockFreq+0x2e4>
 81010ce:	eec6 7a25 	vdiv.f32	s15, s12, s11
 81010d2:	ee76 7aa7 	vadd.f32	s15, s13, s15
 81010d6:	eef7 6a00 	vmov.f32	s13, #112	@ 0x3f800000  1.0
 81010da:	ee77 7aa6 	vadd.f32	s15, s15, s13
 81010de:	ee67 7a27 	vmul.f32	s15, s14, s15
 81010e2:	edc7 7a07 	vstr	s15, [r7, #28]
            break;
 81010e6:	bf00      	nop
        }
        pllp = (((RCC->PLL1DIVR & RCC_PLL1DIVR_P1) >> 9) + 1U) ;
 81010e8:	4b11      	ldr	r3, [pc, #68]	@ (8101130 <HAL_RCC_GetSysClockFreq+0x2d4>)
 81010ea:	6b1b      	ldr	r3, [r3, #48]	@ 0x30
 81010ec:	0a5b      	lsrs	r3, r3, #9
 81010ee:	f003 037f 	and.w	r3, r3, #127	@ 0x7f
 81010f2:	3301      	adds	r3, #1
 81010f4:	603b      	str	r3, [r7, #0]
        sysclockfreq = (uint32_t)(float_t)(pllvco / (float_t)pllp);
 81010f6:	683b      	ldr	r3, [r7, #0]
 81010f8:	ee07 3a90 	vmov	s15, r3
 81010fc:	eeb8 7a67 	vcvt.f32.u32	s14, s15
 8101100:	edd7 6a07 	vldr	s13, [r7, #28]
 8101104:	eec6 7a87 	vdiv.f32	s15, s13, s14
 8101108:	eefc 7ae7 	vcvt.u32.f32	s15, s15
 810110c:	ee17 3a90 	vmov	r3, s15
 8101110:	61bb      	str	r3, [r7, #24]
      }
      else
      {
        sysclockfreq = 0U;
      }
      break;
 8101112:	e005      	b.n	8101120 <HAL_RCC_GetSysClockFreq+0x2c4>
        sysclockfreq = 0U;
 8101114:	2300      	movs	r3, #0
 8101116:	61bb      	str	r3, [r7, #24]
      break;
 8101118:	e002      	b.n	8101120 <HAL_RCC_GetSysClockFreq+0x2c4>

    default:
      sysclockfreq = CSI_VALUE;
 810111a:	4b07      	ldr	r3, [pc, #28]	@ (8101138 <HAL_RCC_GetSysClockFreq+0x2dc>)
 810111c:	61bb      	str	r3, [r7, #24]
      break;
 810111e:	bf00      	nop
  }

  return sysclockfreq;
 8101120:	69bb      	ldr	r3, [r7, #24]
}
 8101122:	4618      	mov	r0, r3
 8101124:	3724      	adds	r7, #36	@ 0x24
 8101126:	46bd      	mov	sp, r7
 8101128:	f85d 7b04 	ldr.w	r7, [sp], #4
 810112c:	4770      	bx	lr
 810112e:	bf00      	nop
 8101130:	58024400 	.word	0x58024400
 8101134:	03d09000 	.word	0x03d09000
 8101138:	003d0900 	.word	0x003d0900
 810113c:	017d7840 	.word	0x017d7840
 8101140:	46000000 	.word	0x46000000
 8101144:	4c742400 	.word	0x4c742400
 8101148:	4a742400 	.word	0x4a742400
 810114c:	4bbebc20 	.word	0x4bbebc20

08101150 <__libc_init_array>:
 8101150:	b570      	push	{r4, r5, r6, lr}
 8101152:	4d0d      	ldr	r5, [pc, #52]	@ (8101188 <__libc_init_array+0x38>)
 8101154:	4c0d      	ldr	r4, [pc, #52]	@ (810118c <__libc_init_array+0x3c>)
 8101156:	1b64      	subs	r4, r4, r5
 8101158:	10a4      	asrs	r4, r4, #2
 810115a:	2600      	movs	r6, #0
 810115c:	42a6      	cmp	r6, r4
 810115e:	d109      	bne.n	8101174 <__libc_init_array+0x24>
 8101160:	4d0b      	ldr	r5, [pc, #44]	@ (8101190 <__libc_init_array+0x40>)
 8101162:	4c0c      	ldr	r4, [pc, #48]	@ (8101194 <__libc_init_array+0x44>)
 8101164:	f000 f818 	bl	8101198 <_init>
 8101168:	1b64      	subs	r4, r4, r5
 810116a:	10a4      	asrs	r4, r4, #2
 810116c:	2600      	movs	r6, #0
 810116e:	42a6      	cmp	r6, r4
 8101170:	d105      	bne.n	810117e <__libc_init_array+0x2e>
 8101172:	bd70      	pop	{r4, r5, r6, pc}
 8101174:	f855 3b04 	ldr.w	r3, [r5], #4
 8101178:	4798      	blx	r3
 810117a:	3601      	adds	r6, #1
 810117c:	e7ee      	b.n	810115c <__libc_init_array+0xc>
 810117e:	f855 3b04 	ldr.w	r3, [r5], #4
 8101182:	4798      	blx	r3
 8101184:	3601      	adds	r6, #1
 8101186:	e7f2      	b.n	810116e <__libc_init_array+0x1e>
 8101188:	081011c8 	.word	0x081011c8
 810118c:	081011c8 	.word	0x081011c8
 8101190:	081011c8 	.word	0x081011c8
 8101194:	081011cc 	.word	0x081011cc

08101198 <_init>:
 8101198:	b5f8      	push	{r3, r4, r5, r6, r7, lr}
 810119a:	bf00      	nop
 810119c:	bcf8      	pop	{r3, r4, r5, r6, r7}
 810119e:	bc08      	pop	{r3}
 81011a0:	469e      	mov	lr, r3
 81011a2:	4770      	bx	lr

081011a4 <_fini>:
 81011a4:	b5f8      	push	{r3, r4, r5, r6, r7, lr}
 81011a6:	bf00      	nop
 81011a8:	bcf8      	pop	{r3, r4, r5, r6, r7}
 81011aa:	bc08      	pop	{r3}
 81011ac:	469e      	mov	lr, r3
 81011ae:	4770      	bx	lr
